ARM GAS  /tmp/ccchPZNN.s 			page 1


   1              		.syntax unified
   2              		.cpu cortex-m3
   3              		.fpu softvfp
   4              		.eabi_attribute 20, 1
   5              		.eabi_attribute 21, 1
   6              		.eabi_attribute 23, 3
   7              		.eabi_attribute 24, 1
   8              		.eabi_attribute 25, 1
   9              		.eabi_attribute 26, 1
  10              		.eabi_attribute 30, 1
  11              		.eabi_attribute 34, 1
  12              		.eabi_attribute 18, 4
  13              		.thumb
  14              		.syntax unified
  15              		.file	"Ra02.c"
  16              		.text
  17              	.Ltext0:
  18              		.cfi_sections	.debug_frame
  19              		.section	.text.Lora_Receive_Task,"ax",%progbits
  20              		.align	2
  21              		.global	Lora_Receive_Task
  22              		.thumb
  23              		.thumb_func
  25              	Lora_Receive_Task:
  26              	.LFB72:
  27              		.file 1 "app/Ra02.c"
   1:app/Ra02.c    **** #include "Ra02.h"
   2:app/Ra02.c    **** #include <stdio.h>
   3:app/Ra02.c    **** #include "FreeRTOS.h"
   4:app/Ra02.c    **** #include "task.h"
   5:app/Ra02.c    **** #include "semphr.h"
   6:app/Ra02.c    **** #include "queue.h"
   7:app/Ra02.c    **** tRadioDriver *mradio = NULL;
   8:app/Ra02.c    **** static SemaphoreHandle_t wr_lock = NULL;
   9:app/Ra02.c    **** static QueueSetHandle_t Qset = NULL;
  10:app/Ra02.c    **** /**
  11:app/Ra02.c    ****  * @brief Transimit Lora Package
  12:app/Ra02.c    ****  * 
  13:app/Ra02.c    ****  * @param Package 
  14:app/Ra02.c    ****  * @param len 
  15:app/Ra02.c    ****  * @param timeout 
  16:app/Ra02.c    ****  * @param Retry 
  17:app/Ra02.c    ****  * @return int 
  18:app/Ra02.c    ****  */
  19:app/Ra02.c    **** int Transmit_Package(uint8_t *Package, uint32_t len,uint32_t timeout,uint32_t Retry)
  20:app/Ra02.c    **** {
  21:app/Ra02.c    **** 	uint32_t last_time=0;
  22:app/Ra02.c    **** 	uint8_t times = Retry;
  23:app/Ra02.c    **** 	xSemaphoreTake(wr_lock,portMAX_DELAY);
  24:app/Ra02.c    **** 	while (times--)
  25:app/Ra02.c    **** 	{
  26:app/Ra02.c    **** 		mradio->SetTxPacket(Package, (uint16_t)len);
  27:app/Ra02.c    **** 		last_time = HAL_GetTick() + timeout;
  28:app/Ra02.c    **** 		while (HAL_GetTick() < last_time)
  29:app/Ra02.c    **** 		{
  30:app/Ra02.c    **** 			switch (mradio->Process())
  31:app/Ra02.c    **** 			{
ARM GAS  /tmp/ccchPZNN.s 			page 2


  32:app/Ra02.c    **** 			case RF_TX_DONE:		//Transmit OK
  33:app/Ra02.c    **** 				mradio->StartRx();
  34:app/Ra02.c    **** 				xSemaphoreGive(wr_lock);
  35:app/Ra02.c    **** 				return TX_OK;
  36:app/Ra02.c    **** 			case RF_TX_TIMEOUT:		//Timeout
  37:app/Ra02.c    **** 				last_time = 0;
  38:app/Ra02.c    **** 				break;
  39:app/Ra02.c    **** 			default:
  40:app/Ra02.c    **** 				break;
  41:app/Ra02.c    **** 			}
  42:app/Ra02.c    **** 		}
  43:app/Ra02.c    **** 	}
  44:app/Ra02.c    **** 	xSemaphoreGive(wr_lock);
  45:app/Ra02.c    **** 	return TX_FAILED;
  46:app/Ra02.c    **** }
  47:app/Ra02.c    **** 
  48:app/Ra02.c    **** int Lora_Wait_Package_nb(uint8_t *output)
  49:app/Ra02.c    **** {
  50:app/Ra02.c    **** 	if (xQueueReceive(Qset, output, 0) == pdTRUE)
  51:app/Ra02.c    **** 		return output[0];
  52:app/Ra02.c    **** 	return 0;
  53:app/Ra02.c    **** }
  54:app/Ra02.c    **** 
  55:app/Ra02.c    **** int Lora_Wait_Package(uint8_t *output,uint32_t Timeout)
  56:app/Ra02.c    **** {
  57:app/Ra02.c    **** 	uint32_t recv_bytes = 0;
  58:app/Ra02.c    **** 	uint32_t last_time = HAL_GetTick() + Timeout;
  59:app/Ra02.c    **** 	while(HAL_GetTick() < last_time)
  60:app/Ra02.c    **** 	{
  61:app/Ra02.c    **** 		if ((recv_bytes = Lora_Wait_Package_nb(output)) > 0)
  62:app/Ra02.c    **** 			return recv_bytes;
  63:app/Ra02.c    **** 		vTaskDelay(10);
  64:app/Ra02.c    **** 	}
  65:app/Ra02.c    **** 	return 0;
  66:app/Ra02.c    **** }
  67:app/Ra02.c    **** 
  68:app/Ra02.c    **** 
  69:app/Ra02.c    **** void Lora_Receive_Task(void *Param)
  70:app/Ra02.c    **** {
  28              		.loc 1 70 0
  29              		.cfi_startproc
  30              		@ args = 0, pretend = 0, frame = 72
  31              		@ frame_needed = 0, uses_anonymous_args = 0
  32              	.LVL0:
  33 0000 00B5     		push	{lr}
  34              	.LCFI0:
  35              		.cfi_def_cfa_offset 4
  36              		.cfi_offset 14, -4
  37 0002 93B0     		sub	sp, sp, #76
  38              	.LCFI1:
  39              		.cfi_def_cfa_offset 80
  40              	.LVL1:
  41              	.L5:
  71:app/Ra02.c    **** 	uint8_t Buff[64];
  72:app/Ra02.c    **** 	uint16_t Bytes;
  73:app/Ra02.c    **** 	while(1)
  74:app/Ra02.c    **** 	{
ARM GAS  /tmp/ccchPZNN.s 			page 3


  75:app/Ra02.c    **** 		xSemaphoreTake(wr_lock, portMAX_DELAY);
  42              		.loc 1 75 0
  43 0004 0023     		movs	r3, #0
  44 0006 4FF0FF32 		mov	r2, #-1
  45 000a 1946     		mov	r1, r3
  46 000c 1748     		ldr	r0, .L7
  47 000e 0068     		ldr	r0, [r0]
  48 0010 FFF7FEFF 		bl	xQueueGenericReceive
  49              	.LVL2:
  76:app/Ra02.c    **** 		switch (mradio->Process())
  50              		.loc 1 76 0
  51 0014 164B     		ldr	r3, .L7+4
  52 0016 1B68     		ldr	r3, [r3]
  53 0018 5B69     		ldr	r3, [r3, #20]
  54 001a 9847     		blx	r3
  55              	.LVL3:
  56 001c 0228     		cmp	r0, #2
  57 001e 02D0     		beq	.L3
  58 0020 0328     		cmp	r0, #3
  59 0022 14D0     		beq	.L4
  60 0024 17E0     		b	.L2
  61              	.L3:
  77:app/Ra02.c    **** 		{
  78:app/Ra02.c    **** 		case RF_RX_DONE:
  79:app/Ra02.c    **** 			mradio->GetRxPacket(&Buff[1], &Bytes);
  62              		.loc 1 79 0
  63 0026 124B     		ldr	r3, .L7+4
  64 0028 1B68     		ldr	r3, [r3]
  65 002a DB68     		ldr	r3, [r3, #12]
  66 002c 0DF10601 		add	r1, sp, #6
  67 0030 0DF10900 		add	r0, sp, #9
  68 0034 9847     		blx	r3
  69              	.LVL4:
  80:app/Ra02.c    **** 			Buff[0] = (uint8_t)Bytes;
  70              		.loc 1 80 0
  71 0036 9DF80630 		ldrb	r3, [sp, #6]	@ zero_extendqisi2
  72 003a 8DF80830 		strb	r3, [sp, #8]
  81:app/Ra02.c    **** 			xQueueSend(Qset, Buff, 0);
  73              		.loc 1 81 0
  74 003e 0023     		movs	r3, #0
  75 0040 1A46     		mov	r2, r3
  76 0042 02A9     		add	r1, sp, #8
  77 0044 0B48     		ldr	r0, .L7+8
  78 0046 0068     		ldr	r0, [r0]
  79 0048 FFF7FEFF 		bl	xQueueGenericSend
  80              	.LVL5:
  82:app/Ra02.c    **** 			break;
  81              		.loc 1 82 0
  82 004c 03E0     		b	.L2
  83              	.L4:
  83:app/Ra02.c    **** 		case RF_RX_TIMEOUT:
  84:app/Ra02.c    **** 			mradio->StartRx();
  84              		.loc 1 84 0
  85 004e 084B     		ldr	r3, .L7+4
  86 0050 1B68     		ldr	r3, [r3]
  87 0052 9B68     		ldr	r3, [r3, #8]
  88 0054 9847     		blx	r3
ARM GAS  /tmp/ccchPZNN.s 			page 4


  89              	.LVL6:
  90              	.L2:
  85:app/Ra02.c    **** 			break;
  86:app/Ra02.c    **** 		}
  87:app/Ra02.c    **** 		xSemaphoreGive(wr_lock);
  91              		.loc 1 87 0
  92 0056 0023     		movs	r3, #0
  93 0058 1A46     		mov	r2, r3
  94 005a 1946     		mov	r1, r3
  95 005c 0348     		ldr	r0, .L7
  96 005e 0068     		ldr	r0, [r0]
  97 0060 FFF7FEFF 		bl	xQueueGenericSend
  98              	.LVL7:
  88:app/Ra02.c    **** 		vTaskDelay(50);
  99              		.loc 1 88 0
 100 0064 3220     		movs	r0, #50
 101 0066 FFF7FEFF 		bl	vTaskDelay
 102              	.LVL8:
  89:app/Ra02.c    **** 	}
 103              		.loc 1 89 0
 104 006a CBE7     		b	.L5
 105              	.L8:
 106              		.align	2
 107              	.L7:
 108 006c 00000000 		.word	.LANCHOR0
 109 0070 00000000 		.word	.LANCHOR1
 110 0074 00000000 		.word	.LANCHOR2
 111              		.cfi_endproc
 112              	.LFE72:
 114              		.section	.text.Transmit_Package,"ax",%progbits
 115              		.align	2
 116              		.global	Transmit_Package
 117              		.thumb
 118              		.thumb_func
 120              	Transmit_Package:
 121              	.LFB69:
  20:app/Ra02.c    **** 	uint32_t last_time=0;
 122              		.loc 1 20 0
 123              		.cfi_startproc
 124              		@ args = 0, pretend = 0, frame = 0
 125              		@ frame_needed = 0, uses_anonymous_args = 0
 126              	.LVL9:
 127 0000 2DE9F041 		push	{r4, r5, r6, r7, r8, lr}
 128              	.LCFI2:
 129              		.cfi_def_cfa_offset 24
 130              		.cfi_offset 4, -24
 131              		.cfi_offset 5, -20
 132              		.cfi_offset 6, -16
 133              		.cfi_offset 7, -12
 134              		.cfi_offset 8, -8
 135              		.cfi_offset 14, -4
 136 0004 8046     		mov	r8, r0
 137 0006 0F46     		mov	r7, r1
 138 0008 1646     		mov	r6, r2
 139              	.LVL10:
  22:app/Ra02.c    **** 	xSemaphoreTake(wr_lock,portMAX_DELAY);
 140              		.loc 1 22 0
ARM GAS  /tmp/ccchPZNN.s 			page 5


 141 000a DCB2     		uxtb	r4, r3
 142              	.LVL11:
  23:app/Ra02.c    **** 	while (times--)
 143              		.loc 1 23 0
 144 000c 0023     		movs	r3, #0
 145              	.LVL12:
 146 000e 4FF0FF32 		mov	r2, #-1
 147              	.LVL13:
 148 0012 1946     		mov	r1, r3
 149              	.LVL14:
 150 0014 1C48     		ldr	r0, .L20
 151              	.LVL15:
 152 0016 0068     		ldr	r0, [r0]
 153 0018 FFF7FEFF 		bl	xQueueGenericReceive
 154              	.LVL16:
  24:app/Ra02.c    **** 	{
 155              		.loc 1 24 0
 156 001c 26E0     		b	.L10
 157              	.LVL17:
 158              	.L17:
  26:app/Ra02.c    **** 		last_time = HAL_GetTick() + timeout;
 159              		.loc 1 26 0
 160 001e 1B4B     		ldr	r3, .L20+4
 161 0020 1B68     		ldr	r3, [r3]
 162 0022 1B69     		ldr	r3, [r3, #16]
 163 0024 B9B2     		uxth	r1, r7
 164 0026 4046     		mov	r0, r8
 165 0028 9847     		blx	r3
 166              	.LVL18:
  27:app/Ra02.c    **** 		while (HAL_GetTick() < last_time)
 167              		.loc 1 27 0
 168 002a FFF7FEFF 		bl	HAL_GetTick
 169              	.LVL19:
 170 002e 8419     		adds	r4, r0, r6
 171              	.LVL20:
  28:app/Ra02.c    **** 		{
 172              		.loc 1 28 0
 173 0030 17E0     		b	.L11
 174              	.L16:
  30:app/Ra02.c    **** 			{
 175              		.loc 1 30 0
 176 0032 164B     		ldr	r3, .L20+4
 177 0034 1B68     		ldr	r3, [r3]
 178 0036 5B69     		ldr	r3, [r3, #20]
 179 0038 9847     		blx	r3
 180              	.LVL21:
 181 003a 0428     		cmp	r0, #4
 182 003c 02D0     		beq	.L13
 183 003e 0528     		cmp	r0, #5
 184 0040 0ED0     		beq	.L18
 185 0042 0EE0     		b	.L11
 186              	.L13:
  33:app/Ra02.c    **** 				xSemaphoreGive(wr_lock);
 187              		.loc 1 33 0
 188 0044 114B     		ldr	r3, .L20+4
 189 0046 1B68     		ldr	r3, [r3]
 190 0048 9B68     		ldr	r3, [r3, #8]
ARM GAS  /tmp/ccchPZNN.s 			page 6


 191 004a 9847     		blx	r3
 192              	.LVL22:
  34:app/Ra02.c    **** 				return TX_OK;
 193              		.loc 1 34 0
 194 004c 0023     		movs	r3, #0
 195 004e 1A46     		mov	r2, r3
 196 0050 1946     		mov	r1, r3
 197 0052 0D48     		ldr	r0, .L20
 198 0054 0068     		ldr	r0, [r0]
 199 0056 FFF7FEFF 		bl	xQueueGenericSend
 200              	.LVL23:
  35:app/Ra02.c    **** 			case RF_TX_TIMEOUT:		//Timeout
 201              		.loc 1 35 0
 202 005a 0020     		movs	r0, #0
 203 005c BDE8F081 		pop	{r4, r5, r6, r7, r8, pc}
 204              	.LVL24:
 205              	.L18:
  37:app/Ra02.c    **** 				break;
 206              		.loc 1 37 0
 207 0060 0024     		movs	r4, #0
 208              	.LVL25:
 209              	.L11:
  28:app/Ra02.c    **** 		{
 210              		.loc 1 28 0
 211 0062 FFF7FEFF 		bl	HAL_GetTick
 212              	.LVL26:
 213 0066 8442     		cmp	r4, r0
 214 0068 E3D8     		bhi	.L16
  24:app/Ra02.c    **** 	{
 215              		.loc 1 24 0
 216 006a 2C46     		mov	r4, r5
 217              	.LVL27:
 218              	.L10:
 219 006c 651E     		subs	r5, r4, #1
 220 006e EDB2     		uxtb	r5, r5
 221              	.LVL28:
 222 0070 002C     		cmp	r4, #0
 223 0072 D4D1     		bne	.L17
  44:app/Ra02.c    **** 	return TX_FAILED;
 224              		.loc 1 44 0
 225 0074 0023     		movs	r3, #0
 226 0076 1A46     		mov	r2, r3
 227 0078 1946     		mov	r1, r3
 228 007a 0348     		ldr	r0, .L20
 229 007c 0068     		ldr	r0, [r0]
 230 007e FFF7FEFF 		bl	xQueueGenericSend
 231              	.LVL29:
  45:app/Ra02.c    **** }
 232              		.loc 1 45 0
 233 0082 0120     		movs	r0, #1
  46:app/Ra02.c    **** 
 234              		.loc 1 46 0
 235 0084 BDE8F081 		pop	{r4, r5, r6, r7, r8, pc}
 236              	.LVL30:
 237              	.L21:
 238              		.align	2
 239              	.L20:
ARM GAS  /tmp/ccchPZNN.s 			page 7


 240 0088 00000000 		.word	.LANCHOR0
 241 008c 00000000 		.word	.LANCHOR1
 242              		.cfi_endproc
 243              	.LFE69:
 245              		.section	.text.Lora_Wait_Package_nb,"ax",%progbits
 246              		.align	2
 247              		.global	Lora_Wait_Package_nb
 248              		.thumb
 249              		.thumb_func
 251              	Lora_Wait_Package_nb:
 252              	.LFB70:
  49:app/Ra02.c    **** 	if (xQueueReceive(Qset, output, 0) == pdTRUE)
 253              		.loc 1 49 0
 254              		.cfi_startproc
 255              		@ args = 0, pretend = 0, frame = 0
 256              		@ frame_needed = 0, uses_anonymous_args = 0
 257              	.LVL31:
 258 0000 10B5     		push	{r4, lr}
 259              	.LCFI3:
 260              		.cfi_def_cfa_offset 8
 261              		.cfi_offset 4, -8
 262              		.cfi_offset 14, -4
 263 0002 0446     		mov	r4, r0
  50:app/Ra02.c    **** 		return output[0];
 264              		.loc 1 50 0
 265 0004 0023     		movs	r3, #0
 266 0006 1A46     		mov	r2, r3
 267 0008 0146     		mov	r1, r0
 268 000a 0548     		ldr	r0, .L26
 269              	.LVL32:
 270 000c 0068     		ldr	r0, [r0]
 271 000e FFF7FEFF 		bl	xQueueGenericReceive
 272              	.LVL33:
 273 0012 0128     		cmp	r0, #1
 274 0014 01D1     		bne	.L24
  51:app/Ra02.c    **** 	return 0;
 275              		.loc 1 51 0
 276 0016 2078     		ldrb	r0, [r4]	@ zero_extendqisi2
 277 0018 10BD     		pop	{r4, pc}
 278              	.LVL34:
 279              	.L24:
  52:app/Ra02.c    **** }
 280              		.loc 1 52 0
 281 001a 0020     		movs	r0, #0
  53:app/Ra02.c    **** 
 282              		.loc 1 53 0
 283 001c 10BD     		pop	{r4, pc}
 284              	.LVL35:
 285              	.L27:
 286 001e 00BF     		.align	2
 287              	.L26:
 288 0020 00000000 		.word	.LANCHOR2
 289              		.cfi_endproc
 290              	.LFE70:
 292              		.section	.text.Lora_Wait_Package,"ax",%progbits
 293              		.align	2
 294              		.global	Lora_Wait_Package
ARM GAS  /tmp/ccchPZNN.s 			page 8


 295              		.thumb
 296              		.thumb_func
 298              	Lora_Wait_Package:
 299              	.LFB71:
  56:app/Ra02.c    **** 	uint32_t recv_bytes = 0;
 300              		.loc 1 56 0
 301              		.cfi_startproc
 302              		@ args = 0, pretend = 0, frame = 0
 303              		@ frame_needed = 0, uses_anonymous_args = 0
 304              	.LVL36:
 305 0000 38B5     		push	{r3, r4, r5, lr}
 306              	.LCFI4:
 307              		.cfi_def_cfa_offset 16
 308              		.cfi_offset 3, -16
 309              		.cfi_offset 4, -12
 310              		.cfi_offset 5, -8
 311              		.cfi_offset 14, -4
 312 0002 0546     		mov	r5, r0
 313 0004 0C46     		mov	r4, r1
 314              	.LVL37:
  58:app/Ra02.c    **** 	while(HAL_GetTick() < last_time)
 315              		.loc 1 58 0
 316 0006 FFF7FEFF 		bl	HAL_GetTick
 317              	.LVL38:
 318 000a 0444     		add	r4, r4, r0
 319              	.LVL39:
  59:app/Ra02.c    **** 	{
 320              		.loc 1 59 0
 321 000c 07E0     		b	.L29
 322              	.LVL40:
 323              	.L31:
  61:app/Ra02.c    **** 			return recv_bytes;
 324              		.loc 1 61 0
 325 000e 2846     		mov	r0, r5
 326 0010 FFF7FEFF 		bl	Lora_Wait_Package_nb
 327              	.LVL41:
 328 0014 0346     		mov	r3, r0
 329 0016 38B9     		cbnz	r0, .L30
  63:app/Ra02.c    **** 	}
 330              		.loc 1 63 0
 331 0018 0A20     		movs	r0, #10
 332              	.LVL42:
 333 001a FFF7FEFF 		bl	vTaskDelay
 334              	.LVL43:
 335              	.L29:
  59:app/Ra02.c    **** 	{
 336              		.loc 1 59 0
 337 001e FFF7FEFF 		bl	HAL_GetTick
 338              	.LVL44:
 339 0022 8442     		cmp	r4, r0
 340 0024 F3D8     		bhi	.L31
  65:app/Ra02.c    **** }
 341              		.loc 1 65 0
 342 0026 0023     		movs	r3, #0
 343              	.L30:
  66:app/Ra02.c    **** 
 344              		.loc 1 66 0
ARM GAS  /tmp/ccchPZNN.s 			page 9


 345 0028 1846     		mov	r0, r3
 346 002a 38BD     		pop	{r3, r4, r5, pc}
 347              		.cfi_endproc
 348              	.LFE71:
 350              		.section	.text.Lora_Init,"ax",%progbits
 351              		.align	2
 352              		.global	Lora_Init
 353              		.thumb
 354              		.thumb_func
 356              	Lora_Init:
 357              	.LFB73:
  90:app/Ra02.c    **** }
  91:app/Ra02.c    **** int Lora_Init(void)
  92:app/Ra02.c    **** {
 358              		.loc 1 92 0
 359              		.cfi_startproc
 360              		@ args = 0, pretend = 0, frame = 0
 361              		@ frame_needed = 0, uses_anonymous_args = 0
 362 0000 10B5     		push	{r4, lr}
 363              	.LCFI5:
 364              		.cfi_def_cfa_offset 8
 365              		.cfi_offset 4, -8
 366              		.cfi_offset 14, -4
 367 0002 82B0     		sub	sp, sp, #8
 368              	.LCFI6:
 369              		.cfi_def_cfa_offset 16
  93:app/Ra02.c    **** 	mradio = RadioDriverInit();
 370              		.loc 1 93 0
 371 0004 FFF7FEFF 		bl	RadioDriverInit
 372              	.LVL45:
 373 0008 104C     		ldr	r4, .L37
 374 000a 2060     		str	r0, [r4]
  94:app/Ra02.c    **** 	wr_lock = xSemaphoreCreateMutex();
 375              		.loc 1 94 0
 376 000c 0120     		movs	r0, #1
 377 000e FFF7FEFF 		bl	xQueueCreateMutex
 378              	.LVL46:
 379 0012 0F4B     		ldr	r3, .L37+4
 380 0014 1860     		str	r0, [r3]
  95:app/Ra02.c    **** 	Qset = xQueueCreate(5,64);
 381              		.loc 1 95 0
 382 0016 0022     		movs	r2, #0
 383 0018 4021     		movs	r1, #64
 384 001a 0520     		movs	r0, #5
 385 001c FFF7FEFF 		bl	xQueueGenericCreate
 386              	.LVL47:
 387 0020 0C4B     		ldr	r3, .L37+8
 388 0022 1860     		str	r0, [r3]
  96:app/Ra02.c    **** 	xTaskCreate(Lora_Receive_Task,"Lora_Receive_Task",64,NULL,8,NULL);
 389              		.loc 1 96 0
 390 0024 0023     		movs	r3, #0
 391 0026 0193     		str	r3, [sp, #4]
 392 0028 0822     		movs	r2, #8
 393 002a 0092     		str	r2, [sp]
 394 002c 4022     		movs	r2, #64
 395 002e 0A49     		ldr	r1, .L37+12
 396 0030 0A48     		ldr	r0, .L37+16
ARM GAS  /tmp/ccchPZNN.s 			page 10


 397 0032 FFF7FEFF 		bl	xTaskCreate
 398              	.LVL48:
  97:app/Ra02.c    **** 	if (mradio == NULL)
 399              		.loc 1 97 0
 400 0036 2368     		ldr	r3, [r4]
 401 0038 1BB1     		cbz	r3, .L35
  98:app/Ra02.c    **** 		return -1;
  99:app/Ra02.c    **** 	mradio->Init();
 402              		.loc 1 99 0
 403 003a 1B68     		ldr	r3, [r3]
 404 003c 9847     		blx	r3
 405              	.LVL49:
 100:app/Ra02.c    **** 	return 0;
 406              		.loc 1 100 0
 407 003e 0020     		movs	r0, #0
 408 0040 01E0     		b	.L34
 409              	.L35:
  98:app/Ra02.c    **** 		return -1;
 410              		.loc 1 98 0
 411 0042 4FF0FF30 		mov	r0, #-1
 412              	.L34:
 101:app/Ra02.c    **** }
 413              		.loc 1 101 0
 414 0046 02B0     		add	sp, sp, #8
 415              	.LCFI7:
 416              		.cfi_def_cfa_offset 8
 417              		@ sp needed
 418 0048 10BD     		pop	{r4, pc}
 419              	.L38:
 420 004a 00BF     		.align	2
 421              	.L37:
 422 004c 00000000 		.word	.LANCHOR1
 423 0050 00000000 		.word	.LANCHOR0
 424 0054 00000000 		.word	.LANCHOR2
 425 0058 00000000 		.word	.LC0
 426 005c 00000000 		.word	Lora_Receive_Task
 427              		.cfi_endproc
 428              	.LFE73:
 430              		.global	mradio
 431              		.section	.bss.mradio,"aw",%nobits
 432              		.align	2
 433              		.set	.LANCHOR1,. + 0
 436              	mradio:
 437 0000 00000000 		.space	4
 438              		.section	.bss.wr_lock,"aw",%nobits
 439              		.align	2
 440              		.set	.LANCHOR0,. + 0
 443              	wr_lock:
 444 0000 00000000 		.space	4
 445              		.section	.rodata.str1.4,"aMS",%progbits,1
 446              		.align	2
 447              	.LC0:
 448 0000 4C6F7261 		.ascii	"Lora_Receive_Task\000"
 448      5F526563 
 448      65697665 
 448      5F546173 
 448      6B00
ARM GAS  /tmp/ccchPZNN.s 			page 11


 449              		.section	.bss.Qset,"aw",%nobits
 450              		.align	2
 451              		.set	.LANCHOR2,. + 0
 454              	Qset:
 455 0000 00000000 		.space	4
 456              		.text
 457              	.Letext0:
 458              		.file 2 "/opt/gcc-arm-none-eabi-5_4-2016q3/arm-none-eabi/include/machine/_default_types.h"
 459              		.file 3 "/opt/gcc-arm-none-eabi-5_4-2016q3/arm-none-eabi/include/sys/_stdint.h"
 460              		.file 4 "radio/radio.h"
 461              		.file 5 "Middlewares/Third_Party/FreeRTOS/Source/portable/GCC/ARM_CM3/portmacro.h"
 462              		.file 6 "Middlewares/Third_Party/FreeRTOS/Source/include/queue.h"
 463              		.file 7 "Middlewares/Third_Party/FreeRTOS/Source/include/semphr.h"
 464              		.file 8 "Drivers/CMSIS/Include/core_cm3.h"
 465              		.file 9 "Middlewares/Third_Party/FreeRTOS/Source/include/task.h"
 466              		.file 10 "Drivers/STM32F1xx_HAL_Driver/Inc/stm32f1xx_hal.h"
 467              		.file 11 "app/Ra02.h"
ARM GAS  /tmp/ccchPZNN.s 			page 12


DEFINED SYMBOLS
                            *ABS*:00000000 Ra02.c
     /tmp/ccchPZNN.s:20     .text.Lora_Receive_Task:00000000 $t
     /tmp/ccchPZNN.s:25     .text.Lora_Receive_Task:00000000 Lora_Receive_Task
     /tmp/ccchPZNN.s:108    .text.Lora_Receive_Task:0000006c $d
     /tmp/ccchPZNN.s:115    .text.Transmit_Package:00000000 $t
     /tmp/ccchPZNN.s:120    .text.Transmit_Package:00000000 Transmit_Package
     /tmp/ccchPZNN.s:240    .text.Transmit_Package:00000088 $d
     /tmp/ccchPZNN.s:246    .text.Lora_Wait_Package_nb:00000000 $t
     /tmp/ccchPZNN.s:251    .text.Lora_Wait_Package_nb:00000000 Lora_Wait_Package_nb
     /tmp/ccchPZNN.s:288    .text.Lora_Wait_Package_nb:00000020 $d
     /tmp/ccchPZNN.s:293    .text.Lora_Wait_Package:00000000 $t
     /tmp/ccchPZNN.s:298    .text.Lora_Wait_Package:00000000 Lora_Wait_Package
     /tmp/ccchPZNN.s:351    .text.Lora_Init:00000000 $t
     /tmp/ccchPZNN.s:356    .text.Lora_Init:00000000 Lora_Init
     /tmp/ccchPZNN.s:422    .text.Lora_Init:0000004c $d
     /tmp/ccchPZNN.s:436    .bss.mradio:00000000 mradio
     /tmp/ccchPZNN.s:432    .bss.mradio:00000000 $d
     /tmp/ccchPZNN.s:439    .bss.wr_lock:00000000 $d
     /tmp/ccchPZNN.s:443    .bss.wr_lock:00000000 wr_lock
     /tmp/ccchPZNN.s:446    .rodata.str1.4:00000000 $d
     /tmp/ccchPZNN.s:450    .bss.Qset:00000000 $d
     /tmp/ccchPZNN.s:454    .bss.Qset:00000000 Qset
                     .debug_frame:00000010 $d

UNDEFINED SYMBOLS
xQueueGenericReceive
xQueueGenericSend
vTaskDelay
HAL_GetTick
RadioDriverInit
xQueueCreateMutex
xQueueGenericCreate
xTaskCreate
