ARM GAS  /tmp/ccnTmxsn.s 			page 1


   1              		.syntax unified
   2              		.cpu cortex-m3
   3              		.fpu softvfp
   4              		.eabi_attribute 20, 1
   5              		.eabi_attribute 21, 1
   6              		.eabi_attribute 23, 3
   7              		.eabi_attribute 24, 1
   8              		.eabi_attribute 25, 1
   9              		.eabi_attribute 26, 1
  10              		.eabi_attribute 30, 1
  11              		.eabi_attribute 34, 1
  12              		.eabi_attribute 18, 4
  13              		.thumb
  14              		.syntax unified
  15              		.file	"Ra02.c"
  16              		.text
  17              	.Ltext0:
  18              		.cfi_sections	.debug_frame
  19              		.section	.text.Lora_Init,"ax",%progbits
  20              		.align	2
  21              		.global	Lora_Init
  22              		.thumb
  23              		.thumb_func
  25              	Lora_Init:
  26              	.LFB69:
  27              		.file 1 "app/Ra02.c"
   1:app/Ra02.c    **** #include "Ra02.h"
   2:app/Ra02.c    **** #include <stdio.h>
   3:app/Ra02.c    **** #include "FreeRTOS.h"
   4:app/Ra02.c    **** #include "task.h"
   5:app/Ra02.c    **** #include "semphr.h"
   6:app/Ra02.c    **** tRadioDriver *mradio = NULL;
   7:app/Ra02.c    **** static SemaphoreHandle_t wr_lock = NULL;
   8:app/Ra02.c    **** int Lora_Init(void)
   9:app/Ra02.c    **** {
  28              		.loc 1 9 0
  29              		.cfi_startproc
  30              		@ args = 0, pretend = 0, frame = 0
  31              		@ frame_needed = 0, uses_anonymous_args = 0
  32 0000 10B5     		push	{r4, lr}
  33              	.LCFI0:
  34              		.cfi_def_cfa_offset 8
  35              		.cfi_offset 4, -8
  36              		.cfi_offset 14, -4
  10:app/Ra02.c    **** 	mradio = RadioDriverInit();
  37              		.loc 1 10 0
  38 0002 FFF7FEFF 		bl	RadioDriverInit
  39              	.LVL0:
  40 0006 084C     		ldr	r4, .L5
  41 0008 2060     		str	r0, [r4]
  11:app/Ra02.c    **** 	wr_lock = xSemaphoreCreateMutex();
  42              		.loc 1 11 0
  43 000a 0120     		movs	r0, #1
  44 000c FFF7FEFF 		bl	xQueueCreateMutex
  45              	.LVL1:
  46 0010 064B     		ldr	r3, .L5+4
  47 0012 1860     		str	r0, [r3]
ARM GAS  /tmp/ccnTmxsn.s 			page 2


  12:app/Ra02.c    **** 	if (mradio == NULL)
  48              		.loc 1 12 0
  49 0014 2368     		ldr	r3, [r4]
  50 0016 1BB1     		cbz	r3, .L3
  13:app/Ra02.c    **** 		return -1;
  14:app/Ra02.c    **** 	mradio->Init();
  51              		.loc 1 14 0
  52 0018 1B68     		ldr	r3, [r3]
  53 001a 9847     		blx	r3
  54              	.LVL2:
  15:app/Ra02.c    **** 	return 0;
  55              		.loc 1 15 0
  56 001c 0020     		movs	r0, #0
  57 001e 10BD     		pop	{r4, pc}
  58              	.L3:
  13:app/Ra02.c    **** 		return -1;
  59              		.loc 1 13 0
  60 0020 4FF0FF30 		mov	r0, #-1
  16:app/Ra02.c    **** }
  61              		.loc 1 16 0
  62 0024 10BD     		pop	{r4, pc}
  63              	.L6:
  64 0026 00BF     		.align	2
  65              	.L5:
  66 0028 00000000 		.word	.LANCHOR0
  67 002c 00000000 		.word	.LANCHOR1
  68              		.cfi_endproc
  69              	.LFE69:
  71              		.section	.text.Transmit_Package,"ax",%progbits
  72              		.align	2
  73              		.global	Transmit_Package
  74              		.thumb
  75              		.thumb_func
  77              	Transmit_Package:
  78              	.LFB70:
  17:app/Ra02.c    **** 
  18:app/Ra02.c    **** /**
  19:app/Ra02.c    ****  * @brief Transimit Lora Package
  20:app/Ra02.c    ****  * 
  21:app/Ra02.c    ****  * @param Package 
  22:app/Ra02.c    ****  * @param len 
  23:app/Ra02.c    ****  * @param timeout 
  24:app/Ra02.c    ****  * @param Retry 
  25:app/Ra02.c    ****  * @return int 
  26:app/Ra02.c    ****  */
  27:app/Ra02.c    **** int Transmit_Package(uint8_t *Package, uint32_t len,uint32_t timeout,uint32_t Retry)
  28:app/Ra02.c    **** {
  79              		.loc 1 28 0
  80              		.cfi_startproc
  81              		@ args = 0, pretend = 0, frame = 0
  82              		@ frame_needed = 0, uses_anonymous_args = 0
  83              	.LVL3:
  84 0000 2DE9F041 		push	{r4, r5, r6, r7, r8, lr}
  85              	.LCFI1:
  86              		.cfi_def_cfa_offset 24
  87              		.cfi_offset 4, -24
  88              		.cfi_offset 5, -20
ARM GAS  /tmp/ccnTmxsn.s 			page 3


  89              		.cfi_offset 6, -16
  90              		.cfi_offset 7, -12
  91              		.cfi_offset 8, -8
  92              		.cfi_offset 14, -4
  93 0004 8046     		mov	r8, r0
  94 0006 0F46     		mov	r7, r1
  95 0008 1646     		mov	r6, r2
  96              	.LVL4:
  29:app/Ra02.c    **** 	uint32_t last_time=0;
  30:app/Ra02.c    **** 	uint8_t times = Retry;
  97              		.loc 1 30 0
  98 000a DCB2     		uxtb	r4, r3
  99              	.LVL5:
  31:app/Ra02.c    **** 	xSemaphoreTake(wr_lock,portMAX_DELAY);
 100              		.loc 1 31 0
 101 000c 0023     		movs	r3, #0
 102              	.LVL6:
 103 000e 4FF0FF32 		mov	r2, #-1
 104              	.LVL7:
 105 0012 1946     		mov	r1, r3
 106              	.LVL8:
 107 0014 1C48     		ldr	r0, .L18
 108              	.LVL9:
 109 0016 0068     		ldr	r0, [r0]
 110 0018 FFF7FEFF 		bl	xQueueGenericReceive
 111              	.LVL10:
  32:app/Ra02.c    **** 	while (times--)
 112              		.loc 1 32 0
 113 001c 26E0     		b	.L8
 114              	.LVL11:
 115              	.L15:
  33:app/Ra02.c    **** 	{
  34:app/Ra02.c    **** 		mradio->SetTxPacket(Package, (uint16_t)len);
 116              		.loc 1 34 0
 117 001e 1B4B     		ldr	r3, .L18+4
 118 0020 1B68     		ldr	r3, [r3]
 119 0022 1B69     		ldr	r3, [r3, #16]
 120 0024 B9B2     		uxth	r1, r7
 121 0026 4046     		mov	r0, r8
 122 0028 9847     		blx	r3
 123              	.LVL12:
  35:app/Ra02.c    **** 		last_time = HAL_GetTick() + timeout;
 124              		.loc 1 35 0
 125 002a FFF7FEFF 		bl	HAL_GetTick
 126              	.LVL13:
 127 002e 8419     		adds	r4, r0, r6
 128              	.LVL14:
  36:app/Ra02.c    **** 		while (HAL_GetTick() < last_time)
 129              		.loc 1 36 0
 130 0030 17E0     		b	.L9
 131              	.L14:
  37:app/Ra02.c    **** 		{
  38:app/Ra02.c    **** 			switch (mradio->Process())
 132              		.loc 1 38 0
 133 0032 164B     		ldr	r3, .L18+4
 134 0034 1B68     		ldr	r3, [r3]
 135 0036 5B69     		ldr	r3, [r3, #20]
ARM GAS  /tmp/ccnTmxsn.s 			page 4


 136 0038 9847     		blx	r3
 137              	.LVL15:
 138 003a 0428     		cmp	r0, #4
 139 003c 02D0     		beq	.L11
 140 003e 0528     		cmp	r0, #5
 141 0040 0ED0     		beq	.L16
 142 0042 0EE0     		b	.L9
 143              	.L11:
  39:app/Ra02.c    **** 			{
  40:app/Ra02.c    **** 			case RF_TX_DONE:		//Transmit OK
  41:app/Ra02.c    **** 				mradio->StartRx();
 144              		.loc 1 41 0
 145 0044 114B     		ldr	r3, .L18+4
 146 0046 1B68     		ldr	r3, [r3]
 147 0048 9B68     		ldr	r3, [r3, #8]
 148 004a 9847     		blx	r3
 149              	.LVL16:
  42:app/Ra02.c    **** 				xSemaphoreGive(wr_lock);
 150              		.loc 1 42 0
 151 004c 0023     		movs	r3, #0
 152 004e 1A46     		mov	r2, r3
 153 0050 1946     		mov	r1, r3
 154 0052 0D48     		ldr	r0, .L18
 155 0054 0068     		ldr	r0, [r0]
 156 0056 FFF7FEFF 		bl	xQueueGenericSend
 157              	.LVL17:
  43:app/Ra02.c    **** 				return TX_OK;
 158              		.loc 1 43 0
 159 005a 0020     		movs	r0, #0
 160 005c BDE8F081 		pop	{r4, r5, r6, r7, r8, pc}
 161              	.LVL18:
 162              	.L16:
  44:app/Ra02.c    **** 			case RF_TX_TIMEOUT:		//Timeout
  45:app/Ra02.c    **** 				last_time = 0;
 163              		.loc 1 45 0
 164 0060 0024     		movs	r4, #0
 165              	.LVL19:
 166              	.L9:
  36:app/Ra02.c    **** 		{
 167              		.loc 1 36 0
 168 0062 FFF7FEFF 		bl	HAL_GetTick
 169              	.LVL20:
 170 0066 8442     		cmp	r4, r0
 171 0068 E3D8     		bhi	.L14
  32:app/Ra02.c    **** 	{
 172              		.loc 1 32 0
 173 006a 2C46     		mov	r4, r5
 174              	.LVL21:
 175              	.L8:
 176 006c 651E     		subs	r5, r4, #1
 177 006e EDB2     		uxtb	r5, r5
 178              	.LVL22:
 179 0070 002C     		cmp	r4, #0
 180 0072 D4D1     		bne	.L15
  46:app/Ra02.c    **** 				break;
  47:app/Ra02.c    **** 			default:
  48:app/Ra02.c    **** 				break;
ARM GAS  /tmp/ccnTmxsn.s 			page 5


  49:app/Ra02.c    **** 			}
  50:app/Ra02.c    **** 		}
  51:app/Ra02.c    **** 	}
  52:app/Ra02.c    **** 	xSemaphoreGive(wr_lock);
 181              		.loc 1 52 0
 182 0074 0023     		movs	r3, #0
 183 0076 1A46     		mov	r2, r3
 184 0078 1946     		mov	r1, r3
 185 007a 0348     		ldr	r0, .L18
 186 007c 0068     		ldr	r0, [r0]
 187 007e FFF7FEFF 		bl	xQueueGenericSend
 188              	.LVL23:
  53:app/Ra02.c    **** 	return TX_FAILED;
 189              		.loc 1 53 0
 190 0082 0120     		movs	r0, #1
  54:app/Ra02.c    **** }
 191              		.loc 1 54 0
 192 0084 BDE8F081 		pop	{r4, r5, r6, r7, r8, pc}
 193              	.LVL24:
 194              	.L19:
 195              		.align	2
 196              	.L18:
 197 0088 00000000 		.word	.LANCHOR1
 198 008c 00000000 		.word	.LANCHOR0
 199              		.cfi_endproc
 200              	.LFE70:
 202              		.section	.text.Lora_Wait_Package_nb,"ax",%progbits
 203              		.align	2
 204              		.global	Lora_Wait_Package_nb
 205              		.thumb
 206              		.thumb_func
 208              	Lora_Wait_Package_nb:
 209              	.LFB71:
  55:app/Ra02.c    **** 
  56:app/Ra02.c    **** int Lora_Wait_Package_nb(uint8_t *output)
  57:app/Ra02.c    **** {
 210              		.loc 1 57 0
 211              		.cfi_startproc
 212              		@ args = 0, pretend = 0, frame = 8
 213              		@ frame_needed = 0, uses_anonymous_args = 0
 214              	.LVL25:
 215 0000 10B5     		push	{r4, lr}
 216              	.LCFI2:
 217              		.cfi_def_cfa_offset 8
 218              		.cfi_offset 4, -8
 219              		.cfi_offset 14, -4
 220 0002 82B0     		sub	sp, sp, #8
 221              	.LCFI3:
 222              		.cfi_def_cfa_offset 16
 223 0004 0446     		mov	r4, r0
  58:app/Ra02.c    **** 	uint16_t recv_size=0;
 224              		.loc 1 58 0
 225 0006 0021     		movs	r1, #0
 226 0008 ADF80610 		strh	r1, [sp, #6]	@ movhi
  59:app/Ra02.c    **** 	xSemaphoreTake(wr_lock,portMAX_DELAY);
 227              		.loc 1 59 0
 228 000c 0B46     		mov	r3, r1
ARM GAS  /tmp/ccnTmxsn.s 			page 6


 229 000e 4FF0FF32 		mov	r2, #-1
 230 0012 1248     		ldr	r0, .L25
 231              	.LVL26:
 232 0014 0068     		ldr	r0, [r0]
 233 0016 FFF7FEFF 		bl	xQueueGenericReceive
 234              	.LVL27:
  60:app/Ra02.c    **** 	switch(mradio->Process())
 235              		.loc 1 60 0
 236 001a 114B     		ldr	r3, .L25+4
 237 001c 1B68     		ldr	r3, [r3]
 238 001e 5B69     		ldr	r3, [r3, #20]
 239 0020 9847     		blx	r3
 240              	.LVL28:
 241 0022 0228     		cmp	r0, #2
 242 0024 02D0     		beq	.L22
 243 0026 0328     		cmp	r0, #3
 244 0028 08D0     		beq	.L23
 245 002a 0BE0     		b	.L21
 246              	.L22:
  61:app/Ra02.c    **** 	{
  62:app/Ra02.c    **** 	case RF_RX_DONE:
  63:app/Ra02.c    **** 		mradio->GetRxPacket(output, &recv_size);
 247              		.loc 1 63 0
 248 002c 0C4B     		ldr	r3, .L25+4
 249 002e 1B68     		ldr	r3, [r3]
 250 0030 DB68     		ldr	r3, [r3, #12]
 251 0032 0DF10601 		add	r1, sp, #6
 252 0036 2046     		mov	r0, r4
 253 0038 9847     		blx	r3
 254              	.LVL29:
  64:app/Ra02.c    **** 		break;
 255              		.loc 1 64 0
 256 003a 03E0     		b	.L21
 257              	.L23:
  65:app/Ra02.c    **** 	case RF_RX_TIMEOUT:
  66:app/Ra02.c    **** 		mradio->StartRx();
 258              		.loc 1 66 0
 259 003c 084B     		ldr	r3, .L25+4
 260 003e 1B68     		ldr	r3, [r3]
 261 0040 9B68     		ldr	r3, [r3, #8]
 262 0042 9847     		blx	r3
 263              	.LVL30:
 264              	.L21:
  67:app/Ra02.c    **** 		break;
  68:app/Ra02.c    **** 	}
  69:app/Ra02.c    **** 	xSemaphoreGive(wr_lock);
 265              		.loc 1 69 0
 266 0044 0023     		movs	r3, #0
 267 0046 1A46     		mov	r2, r3
 268 0048 1946     		mov	r1, r3
 269 004a 0448     		ldr	r0, .L25
 270 004c 0068     		ldr	r0, [r0]
 271 004e FFF7FEFF 		bl	xQueueGenericSend
 272              	.LVL31:
  70:app/Ra02.c    **** 	return recv_size;
  71:app/Ra02.c    **** }
 273              		.loc 1 71 0
ARM GAS  /tmp/ccnTmxsn.s 			page 7


 274 0052 BDF80600 		ldrh	r0, [sp, #6]
 275 0056 02B0     		add	sp, sp, #8
 276              	.LCFI4:
 277              		.cfi_def_cfa_offset 8
 278              		@ sp needed
 279 0058 10BD     		pop	{r4, pc}
 280              	.LVL32:
 281              	.L26:
 282 005a 00BF     		.align	2
 283              	.L25:
 284 005c 00000000 		.word	.LANCHOR1
 285 0060 00000000 		.word	.LANCHOR0
 286              		.cfi_endproc
 287              	.LFE71:
 289              		.section	.text.Lora_Wait_Package,"ax",%progbits
 290              		.align	2
 291              		.global	Lora_Wait_Package
 292              		.thumb
 293              		.thumb_func
 295              	Lora_Wait_Package:
 296              	.LFB72:
  72:app/Ra02.c    **** 
  73:app/Ra02.c    **** int Lora_Wait_Package(uint8_t *output,uint32_t Timeout)
  74:app/Ra02.c    **** {
 297              		.loc 1 74 0
 298              		.cfi_startproc
 299              		@ args = 0, pretend = 0, frame = 0
 300              		@ frame_needed = 0, uses_anonymous_args = 0
 301              	.LVL33:
 302 0000 38B5     		push	{r3, r4, r5, lr}
 303              	.LCFI5:
 304              		.cfi_def_cfa_offset 16
 305              		.cfi_offset 3, -16
 306              		.cfi_offset 4, -12
 307              		.cfi_offset 5, -8
 308              		.cfi_offset 14, -4
 309 0002 0546     		mov	r5, r0
 310 0004 0C46     		mov	r4, r1
 311              	.LVL34:
  75:app/Ra02.c    **** 	uint32_t recv_bytes = 0;
  76:app/Ra02.c    **** 	uint32_t last_time = HAL_GetTick() + Timeout;
 312              		.loc 1 76 0
 313 0006 FFF7FEFF 		bl	HAL_GetTick
 314              	.LVL35:
 315 000a 0444     		add	r4, r4, r0
 316              	.LVL36:
  77:app/Ra02.c    **** 	while(HAL_GetTick() < last_time)
 317              		.loc 1 77 0
 318 000c 07E0     		b	.L28
 319              	.LVL37:
 320              	.L30:
  78:app/Ra02.c    **** 	{
  79:app/Ra02.c    **** 		if ((recv_bytes = Lora_Wait_Package_nb(output)) > 0)
 321              		.loc 1 79 0
 322 000e 2846     		mov	r0, r5
 323 0010 FFF7FEFF 		bl	Lora_Wait_Package_nb
 324              	.LVL38:
ARM GAS  /tmp/ccnTmxsn.s 			page 8


 325 0014 0346     		mov	r3, r0
 326 0016 38B9     		cbnz	r0, .L29
  80:app/Ra02.c    **** 			return recv_bytes;
  81:app/Ra02.c    **** 		vTaskDelay(10);
 327              		.loc 1 81 0
 328 0018 0A20     		movs	r0, #10
 329              	.LVL39:
 330 001a FFF7FEFF 		bl	vTaskDelay
 331              	.LVL40:
 332              	.L28:
  77:app/Ra02.c    **** 	{
 333              		.loc 1 77 0
 334 001e FFF7FEFF 		bl	HAL_GetTick
 335              	.LVL41:
 336 0022 8442     		cmp	r4, r0
 337 0024 F3D8     		bhi	.L30
  82:app/Ra02.c    **** 	}
  83:app/Ra02.c    **** 	return 0;
 338              		.loc 1 83 0
 339 0026 0023     		movs	r3, #0
 340              	.L29:
  84:app/Ra02.c    **** }
 341              		.loc 1 84 0
 342 0028 1846     		mov	r0, r3
 343 002a 38BD     		pop	{r3, r4, r5, pc}
 344              		.cfi_endproc
 345              	.LFE72:
 347              		.global	mradio
 348              		.section	.bss.mradio,"aw",%nobits
 349              		.align	2
 350              		.set	.LANCHOR0,. + 0
 353              	mradio:
 354 0000 00000000 		.space	4
 355              		.section	.bss.wr_lock,"aw",%nobits
 356              		.align	2
 357              		.set	.LANCHOR1,. + 0
 360              	wr_lock:
 361 0000 00000000 		.space	4
 362              		.text
 363              	.Letext0:
 364              		.file 2 "/opt/gcc-arm-none-eabi-5_4-2016q3/arm-none-eabi/include/machine/_default_types.h"
 365              		.file 3 "/opt/gcc-arm-none-eabi-5_4-2016q3/arm-none-eabi/include/sys/_stdint.h"
 366              		.file 4 "radio/radio.h"
 367              		.file 5 "Middlewares/Third_Party/FreeRTOS/Source/portable/GCC/ARM_CM3/portmacro.h"
 368              		.file 6 "Middlewares/Third_Party/FreeRTOS/Source/include/queue.h"
 369              		.file 7 "Middlewares/Third_Party/FreeRTOS/Source/include/semphr.h"
 370              		.file 8 "Drivers/CMSIS/Include/core_cm3.h"
 371              		.file 9 "Drivers/STM32F1xx_HAL_Driver/Inc/stm32f1xx_hal.h"
 372              		.file 10 "Middlewares/Third_Party/FreeRTOS/Source/include/task.h"
 373              		.file 11 "app/Ra02.h"
ARM GAS  /tmp/ccnTmxsn.s 			page 9

