ARM GAS  /tmp/cc5oXB2K.s 			page 1


   1              		.syntax unified
   2              		.cpu cortex-m3
   3              		.fpu softvfp
   4              		.eabi_attribute 20, 1
   5              		.eabi_attribute 21, 1
   6              		.eabi_attribute 23, 3
   7              		.eabi_attribute 24, 1
   8              		.eabi_attribute 25, 1
   9              		.eabi_attribute 26, 1
  10              		.eabi_attribute 30, 1
  11              		.eabi_attribute 34, 1
  12              		.eabi_attribute 18, 4
  13              		.thumb
  14              		.syntax unified
  15              		.file	"SmartPart.c"
  16              		.text
  17              	.Ltext0:
  18              		.cfi_sections	.debug_frame
  19              		.section	.text.Lora_Process_Task,"ax",%progbits
  20              		.align	2
  21              		.global	Lora_Process_Task
  22              		.thumb
  23              		.thumb_func
  25              	Lora_Process_Task:
  26              	.LFB69:
  27              		.file 1 "app/SmartPart.c"
   1:app/SmartPart.c **** #include "SmartPart.h"
   2:app/SmartPart.c **** #include "gpio.h"
   3:app/SmartPart.c **** #include "FreeRTOS.h"
   4:app/SmartPart.c **** #include "task.h"
   5:app/SmartPart.c **** #include "Ra02.h"
   6:app/SmartPart.c **** #include <stdio.h>
   7:app/SmartPart.c **** #include <string.h>
   8:app/SmartPart.c **** Network_Adapter *Adapter = NULL;
   9:app/SmartPart.c **** 
  10:app/SmartPart.c **** uint8_t Lora_Buff[64];
  11:app/SmartPart.c **** void Lora_Process_Task(void *Para)
  12:app/SmartPart.c **** {
  28              		.loc 1 12 0
  29              		.cfi_startproc
  30              		@ args = 0, pretend = 0, frame = 0
  31              		@ frame_needed = 0, uses_anonymous_args = 0
  32              	.LVL0:
  33 0000 08B5     		push	{r3, lr}
  34              	.LCFI0:
  35              		.cfi_def_cfa_offset 8
  36              		.cfi_offset 3, -8
  37              		.cfi_offset 14, -4
  38              	.LVL1:
  39              	.L2:
  13:app/SmartPart.c ****     uint16_t count=0;
  14:app/SmartPart.c ****     while(1)
  15:app/SmartPart.c ****     {
  16:app/SmartPart.c ****         if(Adapter->Get_Network_Status() == CONNECT_SERVER)
  40              		.loc 1 16 0
  41 0002 0A4B     		ldr	r3, .L6
  42 0004 1B68     		ldr	r3, [r3]
ARM GAS  /tmp/cc5oXB2K.s 			page 2


  43 0006 DB69     		ldr	r3, [r3, #28]
  44 0008 9847     		blx	r3
  45              	.LVL2:
  46 000a 0228     		cmp	r0, #2
  47 000c F9D1     		bne	.L2
  17:app/SmartPart.c ****         {
  18:app/SmartPart.c ****             if ((count = Lora_Wait_Package(Lora_Buff,0xFFFF)) > 0)
  48              		.loc 1 18 0
  49 000e 4FF6FF71 		movw	r1, #65535
  50 0012 0748     		ldr	r0, .L6+4
  51 0014 FFF7FEFF 		bl	Lora_Wait_Package
  52              	.LVL3:
  53 0018 83B2     		uxth	r3, r0
  54              	.LVL4:
  55 001a 002B     		cmp	r3, #0
  56 001c F1D0     		beq	.L2
  19:app/SmartPart.c ****                 Adapter->write(&Lora_Buff[1], count);
  57              		.loc 1 19 0
  58 001e 034B     		ldr	r3, .L6
  59              	.LVL5:
  60 0020 1B68     		ldr	r3, [r3]
  61 0022 1B69     		ldr	r3, [r3, #16]
  62 0024 81B2     		uxth	r1, r0
  63              	.LVL6:
  64 0026 0348     		ldr	r0, .L6+8
  65 0028 9847     		blx	r3
  66              	.LVL7:
  67 002a EAE7     		b	.L2
  68              	.L7:
  69              		.align	2
  70              	.L6:
  71 002c 00000000 		.word	.LANCHOR0
  72 0030 00000000 		.word	Lora_Buff
  73 0034 01000000 		.word	Lora_Buff+1
  74              		.cfi_endproc
  75              	.LFE69:
  77              		.section	.text.Server_Lora_Task,"ax",%progbits
  78              		.align	2
  79              		.global	Server_Lora_Task
  80              		.thumb
  81              		.thumb_func
  83              	Server_Lora_Task:
  84              	.LFB70:
  20:app/SmartPart.c ****         }
  21:app/SmartPart.c ****     }
  22:app/SmartPart.c **** }
  23:app/SmartPart.c **** 
  24:app/SmartPart.c **** uint8_t Buff[128];
  25:app/SmartPart.c **** void Server_Lora_Task(void *Para)
  26:app/SmartPart.c **** {
  85              		.loc 1 26 0
  86              		.cfi_startproc
  87              		@ args = 0, pretend = 0, frame = 0
  88              		@ frame_needed = 0, uses_anonymous_args = 0
  89              	.LVL8:
  90 0000 08B5     		push	{r3, lr}
  91              	.LCFI1:
ARM GAS  /tmp/cc5oXB2K.s 			page 3


  92              		.cfi_def_cfa_offset 8
  93              		.cfi_offset 3, -8
  94              		.cfi_offset 14, -4
  95              	.LVL9:
  27:app/SmartPart.c ****     int bytes = 0;
  28:app/SmartPart.c ****     if (Adapter->Get_Network_Status() == CONNECT_SERVER)
  96              		.loc 1 28 0
  97 0002 0A4B     		ldr	r3, .L11
  98 0004 1B68     		ldr	r3, [r3]
  99 0006 DB69     		ldr	r3, [r3, #28]
 100 0008 9847     		blx	r3
 101              	.LVL10:
 102 000a 0228     		cmp	r0, #2
 103 000c 0DD1     		bne	.L8
  29:app/SmartPart.c ****     {
  30:app/SmartPart.c ****         if ((bytes = Adapter->read_nb(Buff, 128)) > 0)
 104              		.loc 1 30 0
 105 000e 074B     		ldr	r3, .L11
 106 0010 1B68     		ldr	r3, [r3]
 107 0012 5B69     		ldr	r3, [r3, #20]
 108 0014 8021     		movs	r1, #128
 109 0016 0648     		ldr	r0, .L11+4
 110 0018 9847     		blx	r3
 111              	.LVL11:
 112 001a 011E     		subs	r1, r0, #0
 113 001c 05DD     		ble	.L8
  31:app/SmartPart.c ****             Transmit_Package(Buff,bytes,500,3);
 114              		.loc 1 31 0
 115 001e 0323     		movs	r3, #3
 116 0020 4FF4FA72 		mov	r2, #500
 117 0024 0248     		ldr	r0, .L11+4
 118              	.LVL12:
 119 0026 FFF7FEFF 		bl	Transmit_Package
 120              	.LVL13:
 121              	.L8:
 122 002a 08BD     		pop	{r3, pc}
 123              	.L12:
 124              		.align	2
 125              	.L11:
 126 002c 00000000 		.word	.LANCHOR0
 127 0030 00000000 		.word	Buff
 128              		.cfi_endproc
 129              	.LFE70:
 131              		.section	.text.SmartPart_Task,"ax",%progbits
 132              		.align	2
 133              		.global	SmartPart_Task
 134              		.thumb
 135              		.thumb_func
 137              	SmartPart_Task:
 138              	.LFB71:
  32:app/SmartPart.c ****     }
  33:app/SmartPart.c **** }
  34:app/SmartPart.c **** void SmartPart_Task(void *param)
  35:app/SmartPart.c **** {
 139              		.loc 1 35 0
 140              		.cfi_startproc
 141              		@ Volatile: function does not return.
ARM GAS  /tmp/cc5oXB2K.s 			page 4


 142              		@ args = 0, pretend = 0, frame = 0
 143              		@ frame_needed = 0, uses_anonymous_args = 0
 144              	.LVL14:
 145 0000 00B5     		push	{lr}
 146              	.LCFI2:
 147              		.cfi_def_cfa_offset 4
 148              		.cfi_offset 14, -4
 149 0002 83B0     		sub	sp, sp, #12
 150              	.LCFI3:
 151              		.cfi_def_cfa_offset 16
  36:app/SmartPart.c ****     // const unsigned char *str="OK\n";
  37:app/SmartPart.c ****     Adapter = Network_Adapter_Init();
 152              		.loc 1 37 0
 153 0004 FFF7FEFF 		bl	Network_Adapter_Init
 154              	.LVL15:
 155 0008 134B     		ldr	r3, .L18
 156 000a 1860     		str	r0, [r3]
  38:app/SmartPart.c ****     Lora_Init();
 157              		.loc 1 38 0
 158 000c FFF7FEFF 		bl	Lora_Init
 159              	.LVL16:
  39:app/SmartPart.c ****     xTaskCreate(Lora_Process_Task, "Lora_Process_Task", 64, NULL, 8, NULL);
 160              		.loc 1 39 0
 161 0010 0023     		movs	r3, #0
 162 0012 0193     		str	r3, [sp, #4]
 163 0014 0822     		movs	r2, #8
 164 0016 0092     		str	r2, [sp]
 165 0018 4022     		movs	r2, #64
 166 001a 1049     		ldr	r1, .L18+4
 167 001c 1048     		ldr	r0, .L18+8
 168 001e FFF7FEFF 		bl	xTaskCreate
 169              	.LVL17:
 170              	.L15:
  40:app/SmartPart.c ****     while(1)
  41:app/SmartPart.c ****     {
  42:app/SmartPart.c ****         if(Adapter->Get_Network_Status() == NOINIT)
 171              		.loc 1 42 0
 172 0022 0D4B     		ldr	r3, .L18
 173 0024 1B68     		ldr	r3, [r3]
 174 0026 DB69     		ldr	r3, [r3, #28]
 175 0028 9847     		blx	r3
 176              	.LVL18:
 177 002a 18B9     		cbnz	r0, .L14
  43:app/SmartPart.c ****             Adapter->Init();
 178              		.loc 1 43 0
 179 002c 0A4B     		ldr	r3, .L18
 180 002e 1B68     		ldr	r3, [r3]
 181 0030 5B68     		ldr	r3, [r3, #4]
 182 0032 9847     		blx	r3
 183              	.LVL19:
 184              	.L14:
  44:app/SmartPart.c ****         if (Adapter->Get_Network_Status() == GOT_IP)
 185              		.loc 1 44 0
 186 0034 084B     		ldr	r3, .L18
 187 0036 1B68     		ldr	r3, [r3]
 188 0038 DB69     		ldr	r3, [r3, #28]
 189 003a 9847     		blx	r3
ARM GAS  /tmp/cc5oXB2K.s 			page 5


 190              	.LVL20:
 191 003c 0128     		cmp	r0, #1
 192 003e F0D1     		bne	.L15
  45:app/SmartPart.c ****             Adapter->UDP_Connect("47.106.129.185", 9008, 0, 5000);
 193              		.loc 1 45 0
 194 0040 054B     		ldr	r3, .L18
 195 0042 1B68     		ldr	r3, [r3]
 196 0044 DC68     		ldr	r4, [r3, #12]
 197 0046 41F28833 		movw	r3, #5000
 198 004a 0022     		movs	r2, #0
 199 004c 42F23031 		movw	r1, #9008
 200 0050 0448     		ldr	r0, .L18+12
 201 0052 A047     		blx	r4
 202              	.LVL21:
 203 0054 E5E7     		b	.L15
 204              	.L19:
 205 0056 00BF     		.align	2
 206              	.L18:
 207 0058 00000000 		.word	.LANCHOR0
 208 005c 00000000 		.word	.LC0
 209 0060 00000000 		.word	Lora_Process_Task
 210 0064 14000000 		.word	.LC1
 211              		.cfi_endproc
 212              	.LFE71:
 214              		.comm	Buff,128,4
 215              		.comm	Lora_Buff,64,4
 216              		.global	Adapter
 217              		.section	.rodata.str1.4,"aMS",%progbits,1
 218              		.align	2
 219              	.LC0:
 220 0000 4C6F7261 		.ascii	"Lora_Process_Task\000"
 220      5F50726F 
 220      63657373 
 220      5F546173 
 220      6B00
 221 0012 0000     		.space	2
 222              	.LC1:
 223 0014 34372E31 		.ascii	"47.106.129.185\000"
 223      30362E31 
 223      32392E31 
 223      383500
 224              		.section	.bss.Adapter,"aw",%nobits
 225              		.align	2
 226              		.set	.LANCHOR0,. + 0
 229              	Adapter:
 230 0000 00000000 		.space	4
 231              		.text
 232              	.Letext0:
 233              		.file 2 "/opt/gcc-arm-none-eabi-5_4-2016q3/arm-none-eabi/include/machine/_default_types.h"
 234              		.file 3 "/opt/gcc-arm-none-eabi-5_4-2016q3/arm-none-eabi/include/sys/_stdint.h"
 235              		.file 4 "app/Network_Adapter.h"
 236              		.file 5 "Drivers/CMSIS/Include/core_cm3.h"
 237              		.file 6 "app/Ra02.h"
 238              		.file 7 "Middlewares/Third_Party/FreeRTOS/Source/include/task.h"
ARM GAS  /tmp/cc5oXB2K.s 			page 6


DEFINED SYMBOLS
                            *ABS*:00000000 SmartPart.c
     /tmp/cc5oXB2K.s:20     .text.Lora_Process_Task:00000000 $t
     /tmp/cc5oXB2K.s:25     .text.Lora_Process_Task:00000000 Lora_Process_Task
     /tmp/cc5oXB2K.s:71     .text.Lora_Process_Task:0000002c $d
                            *COM*:00000040 Lora_Buff
     /tmp/cc5oXB2K.s:78     .text.Server_Lora_Task:00000000 $t
     /tmp/cc5oXB2K.s:83     .text.Server_Lora_Task:00000000 Server_Lora_Task
     /tmp/cc5oXB2K.s:126    .text.Server_Lora_Task:0000002c $d
                            *COM*:00000080 Buff
     /tmp/cc5oXB2K.s:132    .text.SmartPart_Task:00000000 $t
     /tmp/cc5oXB2K.s:137    .text.SmartPart_Task:00000000 SmartPart_Task
     /tmp/cc5oXB2K.s:207    .text.SmartPart_Task:00000058 $d
     /tmp/cc5oXB2K.s:229    .bss.Adapter:00000000 Adapter
     /tmp/cc5oXB2K.s:218    .rodata.str1.4:00000000 $d
     /tmp/cc5oXB2K.s:225    .bss.Adapter:00000000 $d
                     .debug_frame:00000010 $d

UNDEFINED SYMBOLS
Lora_Wait_Package
Transmit_Package
Network_Adapter_Init
Lora_Init
xTaskCreate
