ARM GAS  /tmp/ccGYjd8U.s 			page 1


   1              		.syntax unified
   2              		.cpu cortex-m3
   3              		.fpu softvfp
   4              		.eabi_attribute 20, 1
   5              		.eabi_attribute 21, 1
   6              		.eabi_attribute 23, 3
   7              		.eabi_attribute 24, 1
   8              		.eabi_attribute 25, 1
   9              		.eabi_attribute 26, 1
  10              		.eabi_attribute 30, 1
  11              		.eabi_attribute 34, 1
  12              		.eabi_attribute 18, 4
  13              		.thumb
  14              		.syntax unified
  15              		.file	"sx1276-Hal.c"
  16              		.text
  17              	.Ltext0:
  18              		.cfi_sections	.debug_frame
  19              		.section	.text.SX1276InitIo,"ax",%progbits
  20              		.align	2
  21              		.global	SX1276InitIo
  22              		.thumb
  23              		.thumb_func
  25              	SX1276InitIo:
  26              	.LFB64:
  27              		.file 1 "platform/sx12xxEiger/sx1276-Hal.c"
   1:platform/sx12xxEiger/sx1276-Hal.c **** /*
   2:platform/sx12xxEiger/sx1276-Hal.c ****  * THE FOLLOWING FIRMWARE IS PROVIDED: (1) "AS IS" WITH NO WARRANTY; AND 
   3:platform/sx12xxEiger/sx1276-Hal.c ****  * (2)TO ENABLE ACCESS TO CODING INFORMATION TO GUIDE AND FACILITATE CUSTOMER.
   4:platform/sx12xxEiger/sx1276-Hal.c ****  * CONSEQUENTLY, SEMTECH SHALL NOT BE HELD LIABLE FOR ANY DIRECT, INDIRECT OR
   5:platform/sx12xxEiger/sx1276-Hal.c ****  * CONSEQUENTIAL DAMAGES WITH RESPECT TO ANY CLAIMS ARISING FROM THE CONTENT
   6:platform/sx12xxEiger/sx1276-Hal.c ****  * OF SUCH FIRMWARE AND/OR THE USE MADE BY CUSTOMERS OF THE CODING INFORMATION
   7:platform/sx12xxEiger/sx1276-Hal.c ****  * CONTAINED HEREIN IN CONNECTION WITH THEIR PRODUCTS.
   8:platform/sx12xxEiger/sx1276-Hal.c ****  * 
   9:platform/sx12xxEiger/sx1276-Hal.c ****  * Copyright (C) SEMTECH S.A.
  10:platform/sx12xxEiger/sx1276-Hal.c ****  */
  11:platform/sx12xxEiger/sx1276-Hal.c **** /*! 
  12:platform/sx12xxEiger/sx1276-Hal.c ****  * \file       sx1276-Hal.c
  13:platform/sx12xxEiger/sx1276-Hal.c ****  * \brief      SX1276 Hardware Abstraction Layer
  14:platform/sx12xxEiger/sx1276-Hal.c ****  *
  15:platform/sx12xxEiger/sx1276-Hal.c ****  * \version    2.0.B2 
  16:platform/sx12xxEiger/sx1276-Hal.c ****  * \date       Nov 21 2012
  17:platform/sx12xxEiger/sx1276-Hal.c ****  * \author     Miguel Luis
  18:platform/sx12xxEiger/sx1276-Hal.c ****  *
  19:platform/sx12xxEiger/sx1276-Hal.c ****  * Last modified by Miguel Luis on Jun 19 2013
  20:platform/sx12xxEiger/sx1276-Hal.c ****  */
  21:platform/sx12xxEiger/sx1276-Hal.c **** #include <stdint.h>
  22:platform/sx12xxEiger/sx1276-Hal.c **** #include <stdbool.h> 
  23:platform/sx12xxEiger/sx1276-Hal.c **** 
  24:platform/sx12xxEiger/sx1276-Hal.c **** #include "platform.h"
  25:platform/sx12xxEiger/sx1276-Hal.c **** #include "gpio.h"
  26:platform/sx12xxEiger/sx1276-Hal.c **** #if defined( USE_SX1276_RADIO )
  27:platform/sx12xxEiger/sx1276-Hal.c **** 
  28:platform/sx12xxEiger/sx1276-Hal.c **** #include "ioe.h"
  29:platform/sx12xxEiger/sx1276-Hal.c **** #include "spi.h"
  30:platform/sx12xxEiger/sx1276-Hal.c **** #include "../../radio/sx1276-Hal.h"
  31:platform/sx12xxEiger/sx1276-Hal.c **** 
ARM GAS  /tmp/ccGYjd8U.s 			page 2


  32:platform/sx12xxEiger/sx1276-Hal.c **** /*!
  33:platform/sx12xxEiger/sx1276-Hal.c ****  * SX1276 RESET I/O definitions
  34:platform/sx12xxEiger/sx1276-Hal.c ****  */
  35:platform/sx12xxEiger/sx1276-Hal.c **** #if defined( STM32F4XX ) || defined( STM32F2XX ) 
  36:platform/sx12xxEiger/sx1276-Hal.c **** #define RESET_IOPORT                                GPIOG
  37:platform/sx12xxEiger/sx1276-Hal.c **** #define RESET_PIN                                   GPIO_Pin_12
  38:platform/sx12xxEiger/sx1276-Hal.c **** #elif defined( STM32F429_439xx )
  39:platform/sx12xxEiger/sx1276-Hal.c **** #define RESET_IOPORT                                GPIOG
  40:platform/sx12xxEiger/sx1276-Hal.c **** #define RESET_PIN                                   GPIO_Pin_12
  41:platform/sx12xxEiger/sx1276-Hal.c **** #else
  42:platform/sx12xxEiger/sx1276-Hal.c **** #define RESET_IOPORT                                GPIOA
  43:platform/sx12xxEiger/sx1276-Hal.c **** #define RESET_PIN                                   GPIO_Pin_1
  44:platform/sx12xxEiger/sx1276-Hal.c **** #endif
  45:platform/sx12xxEiger/sx1276-Hal.c **** 
  46:platform/sx12xxEiger/sx1276-Hal.c **** /*!
  47:platform/sx12xxEiger/sx1276-Hal.c ****  * SX1276 SPI NSS I/O definitions
  48:platform/sx12xxEiger/sx1276-Hal.c ****  */
  49:platform/sx12xxEiger/sx1276-Hal.c **** #if defined( STM32F4XX ) || defined( STM32F2XX )
  50:platform/sx12xxEiger/sx1276-Hal.c **** #define NSS_IOPORT                                  GPIOA
  51:platform/sx12xxEiger/sx1276-Hal.c **** #define NSS_PIN                                     GPIO_Pin_15
  52:platform/sx12xxEiger/sx1276-Hal.c **** #elif defined( STM32F429_439xx )
  53:platform/sx12xxEiger/sx1276-Hal.c **** #define NSS_IOPORT                                  GPIOA
  54:platform/sx12xxEiger/sx1276-Hal.c **** #define NSS_PIN                                     GPIO_Pin_4
  55:platform/sx12xxEiger/sx1276-Hal.c **** #else
  56:platform/sx12xxEiger/sx1276-Hal.c **** #define NSS_IOPORT                                  LORA_NSS_GPIO_Port
  57:platform/sx12xxEiger/sx1276-Hal.c **** #define NSS_PIN                                     LORA_NSS_Pin
  58:platform/sx12xxEiger/sx1276-Hal.c **** #endif
  59:platform/sx12xxEiger/sx1276-Hal.c **** 
  60:platform/sx12xxEiger/sx1276-Hal.c **** /*!
  61:platform/sx12xxEiger/sx1276-Hal.c ****  * SX1276 DIO pins  I/O definitions
  62:platform/sx12xxEiger/sx1276-Hal.c ****  */
  63:platform/sx12xxEiger/sx1276-Hal.c **** #if defined( STM32F4XX ) || defined( STM32F2XX ) 
  64:platform/sx12xxEiger/sx1276-Hal.c **** #define DIO0_IOPORT                                 GPIOG
  65:platform/sx12xxEiger/sx1276-Hal.c **** #define DIO0_PIN                                    GPIO_Pin_13
  66:platform/sx12xxEiger/sx1276-Hal.c **** #elif defined( STM32F429_439xx )
  67:platform/sx12xxEiger/sx1276-Hal.c **** #define DIO0_IOPORT                                 GPIOG
  68:platform/sx12xxEiger/sx1276-Hal.c **** #define DIO0_PIN                                    GPIO_Pin_13
  69:platform/sx12xxEiger/sx1276-Hal.c **** #else
  70:platform/sx12xxEiger/sx1276-Hal.c **** #define DIO0_IOPORT                                 LORA_DIO0_GPIO_Port
  71:platform/sx12xxEiger/sx1276-Hal.c **** #define DIO0_PIN                                    LORA_DIO0_Pin
  72:platform/sx12xxEiger/sx1276-Hal.c **** #endif
  73:platform/sx12xxEiger/sx1276-Hal.c **** 
  74:platform/sx12xxEiger/sx1276-Hal.c **** #if defined( STM32F4XX ) || defined( STM32F2XX )
  75:platform/sx12xxEiger/sx1276-Hal.c **** #define DIO1_IOPORT                                 GPIOB
  76:platform/sx12xxEiger/sx1276-Hal.c **** #define DIO1_PIN                                    GPIO_Pin_8
  77:platform/sx12xxEiger/sx1276-Hal.c **** #elif defined( STM32F429_439xx )
  78:platform/sx12xxEiger/sx1276-Hal.c **** #define DIO1_IOPORT                                 GPIOB
  79:platform/sx12xxEiger/sx1276-Hal.c **** #define DIO1_PIN                                    GPIO_Pin_7
  80:platform/sx12xxEiger/sx1276-Hal.c **** #else
  81:platform/sx12xxEiger/sx1276-Hal.c **** #define DIO1_IOPORT                                 LORA_DIO1_GPIO_Port
  82:platform/sx12xxEiger/sx1276-Hal.c **** #define DIO1_PIN                                    LORA_DIO1_Pin
  83:platform/sx12xxEiger/sx1276-Hal.c **** #endif
  84:platform/sx12xxEiger/sx1276-Hal.c **** 
  85:platform/sx12xxEiger/sx1276-Hal.c **** #if defined( STM32F4XX ) || defined( STM32F2XX ) 
  86:platform/sx12xxEiger/sx1276-Hal.c **** #define DIO2_IOPORT                                 GPIOA
  87:platform/sx12xxEiger/sx1276-Hal.c **** #define DIO2_PIN                                    GPIO_Pin_2
  88:platform/sx12xxEiger/sx1276-Hal.c **** #elif defined( STM32F429_439xx )
ARM GAS  /tmp/ccGYjd8U.s 			page 3


  89:platform/sx12xxEiger/sx1276-Hal.c **** #define DIO2_IOPORT                                 GPIOA
  90:platform/sx12xxEiger/sx1276-Hal.c **** #define DIO2_PIN                                    GPIO_Pin_2
  91:platform/sx12xxEiger/sx1276-Hal.c **** #else
  92:platform/sx12xxEiger/sx1276-Hal.c **** #define DIO2_IOPORT									LORA_DIO2_GPIO_Port
  93:platform/sx12xxEiger/sx1276-Hal.c **** #define DIO2_PIN									LORA_DIO2_Pin
  94:platform/sx12xxEiger/sx1276-Hal.c **** #endif
  95:platform/sx12xxEiger/sx1276-Hal.c **** 
  96:platform/sx12xxEiger/sx1276-Hal.c **** #if defined( STM32F4XX ) || defined( STM32F2XX ) || defined( STM32F429_439xx )
  97:platform/sx12xxEiger/sx1276-Hal.c **** #define DIO3_IOPORT                                 
  98:platform/sx12xxEiger/sx1276-Hal.c **** #define DIO3_PIN                                    RF_DIO3_PIN
  99:platform/sx12xxEiger/sx1276-Hal.c **** #else
 100:platform/sx12xxEiger/sx1276-Hal.c **** #define DIO3_IOPORT                                 
 101:platform/sx12xxEiger/sx1276-Hal.c **** #define DIO3_PIN                                    RF_DIO3_PIN
 102:platform/sx12xxEiger/sx1276-Hal.c **** #endif
 103:platform/sx12xxEiger/sx1276-Hal.c **** 
 104:platform/sx12xxEiger/sx1276-Hal.c **** #if defined( STM32F4XX ) || defined( STM32F2XX ) || defined( STM32F429_439xx )
 105:platform/sx12xxEiger/sx1276-Hal.c **** #define DIO4_IOPORT                                 
 106:platform/sx12xxEiger/sx1276-Hal.c **** #define DIO4_PIN                                    RF_DIO4_PIN
 107:platform/sx12xxEiger/sx1276-Hal.c **** #else
 108:platform/sx12xxEiger/sx1276-Hal.c **** #define DIO4_IOPORT                                 
 109:platform/sx12xxEiger/sx1276-Hal.c **** #define DIO4_PIN                                    RF_DIO4_PIN
 110:platform/sx12xxEiger/sx1276-Hal.c **** #endif
 111:platform/sx12xxEiger/sx1276-Hal.c **** 
 112:platform/sx12xxEiger/sx1276-Hal.c **** #if defined( STM32F4XX ) || defined( STM32F2XX ) || defined( STM32F429_439xx )
 113:platform/sx12xxEiger/sx1276-Hal.c **** #define DIO5_IOPORT                                 
 114:platform/sx12xxEiger/sx1276-Hal.c **** #define DIO5_PIN                                    RF_DIO5_PIN
 115:platform/sx12xxEiger/sx1276-Hal.c **** #else
 116:platform/sx12xxEiger/sx1276-Hal.c **** #define DIO5_IOPORT                                 
 117:platform/sx12xxEiger/sx1276-Hal.c **** #define DIO5_PIN                                    RF_DIO5_PIN
 118:platform/sx12xxEiger/sx1276-Hal.c **** #endif
 119:platform/sx12xxEiger/sx1276-Hal.c **** 
 120:platform/sx12xxEiger/sx1276-Hal.c **** #if defined( STM32F4XX ) || defined( STM32F2XX ) || defined( STM32F429_439xx )
 121:platform/sx12xxEiger/sx1276-Hal.c **** #define RXTX_IOPORT                                 
 122:platform/sx12xxEiger/sx1276-Hal.c **** #define RXTX_PIN                                    FEM_CTX_PIN
 123:platform/sx12xxEiger/sx1276-Hal.c **** #else
 124:platform/sx12xxEiger/sx1276-Hal.c **** #define RXTX_IOPORT                                 
 125:platform/sx12xxEiger/sx1276-Hal.c **** #define RXTX_PIN                                    FEM_CTX_PIN
 126:platform/sx12xxEiger/sx1276-Hal.c **** #endif
 127:platform/sx12xxEiger/sx1276-Hal.c **** 
 128:platform/sx12xxEiger/sx1276-Hal.c **** void SX1276InitIo( void )
 129:platform/sx12xxEiger/sx1276-Hal.c **** {
  28              		.loc 1 129 0
  29              		.cfi_startproc
  30              		@ args = 0, pretend = 0, frame = 0
  31              		@ frame_needed = 0, uses_anonymous_args = 0
  32              		@ link register save eliminated.
  33 0000 7047     		bx	lr
  34              		.cfi_endproc
  35              	.LFE64:
  37 0002 00BF     		.section	.text.SX1276SetReset,"ax",%progbits
  38              		.align	2
  39              		.global	SX1276SetReset
  40              		.thumb
  41              		.thumb_func
  43              	SX1276SetReset:
  44              	.LFB65:
 130:platform/sx12xxEiger/sx1276-Hal.c **** /*
ARM GAS  /tmp/ccGYjd8U.s 			page 4


 131:platform/sx12xxEiger/sx1276-Hal.c ****     GPIO_InitTypeDef GPIO_InitStructure;
 132:platform/sx12xxEiger/sx1276-Hal.c **** 
 133:platform/sx12xxEiger/sx1276-Hal.c **** #if defined( STM32F4XX ) || defined( STM32F2XX ) || defined( STM32F429_439xx )
 134:platform/sx12xxEiger/sx1276-Hal.c ****     RCC_AHB1PeriphClockCmd( RCC_AHB1Periph_GPIOA | RCC_AHB1Periph_GPIOB |
 135:platform/sx12xxEiger/sx1276-Hal.c ****                             RCC_AHB1Periph_GPIOG, ENABLE );
 136:platform/sx12xxEiger/sx1276-Hal.c **** #else
 137:platform/sx12xxEiger/sx1276-Hal.c ****     RCC_APB2PeriphClockCmd( RCC_APB2Periph_GPIOA | RCC_APB2Periph_GPIOB |
 138:platform/sx12xxEiger/sx1276-Hal.c ****                             RCC_APB2Periph_GPIOC | RCC_APB2Periph_AFIO, ENABLE );
 139:platform/sx12xxEiger/sx1276-Hal.c **** #endif
 140:platform/sx12xxEiger/sx1276-Hal.c **** 
 141:platform/sx12xxEiger/sx1276-Hal.c **** #if defined( STM32F4XX ) || defined( STM32F2XX ) || defined( STM32F429_439xx )
 142:platform/sx12xxEiger/sx1276-Hal.c ****     GPIO_InitStructure.GPIO_Mode = GPIO_Mode_OUT;
 143:platform/sx12xxEiger/sx1276-Hal.c ****     GPIO_InitStructure.GPIO_Speed = GPIO_Speed_50MHz;
 144:platform/sx12xxEiger/sx1276-Hal.c ****     GPIO_InitStructure.GPIO_OType = GPIO_OType_PP;
 145:platform/sx12xxEiger/sx1276-Hal.c ****     GPIO_InitStructure.GPIO_PuPd  = GPIO_PuPd_UP;
 146:platform/sx12xxEiger/sx1276-Hal.c **** #else
 147:platform/sx12xxEiger/sx1276-Hal.c ****     GPIO_InitStructure.GPIO_Mode  = GPIO_Mode_Out_PP;
 148:platform/sx12xxEiger/sx1276-Hal.c ****     GPIO_InitStructure.GPIO_Speed = GPIO_Speed_50MHz;
 149:platform/sx12xxEiger/sx1276-Hal.c **** #endif
 150:platform/sx12xxEiger/sx1276-Hal.c ****     
 151:platform/sx12xxEiger/sx1276-Hal.c ****     // Configure NSS as output
 152:platform/sx12xxEiger/sx1276-Hal.c ****     GPIO_WriteBit( NSS_IOPORT, NSS_PIN, Bit_SET );
 153:platform/sx12xxEiger/sx1276-Hal.c ****     GPIO_InitStructure.GPIO_Pin = NSS_PIN;
 154:platform/sx12xxEiger/sx1276-Hal.c ****     GPIO_Init( NSS_IOPORT, &GPIO_InitStructure );
 155:platform/sx12xxEiger/sx1276-Hal.c **** 
 156:platform/sx12xxEiger/sx1276-Hal.c ****     // Configure radio DIO as inputs
 157:platform/sx12xxEiger/sx1276-Hal.c **** #if defined( STM32F4XX ) || defined( STM32F2XX ) || defined( STM32F429_439xx )
 158:platform/sx12xxEiger/sx1276-Hal.c ****     GPIO_InitStructure.GPIO_Mode = GPIO_Mode_IN;
 159:platform/sx12xxEiger/sx1276-Hal.c ****     GPIO_InitStructure.GPIO_Speed = GPIO_Speed_50MHz;
 160:platform/sx12xxEiger/sx1276-Hal.c **** #else
 161:platform/sx12xxEiger/sx1276-Hal.c ****     GPIO_InitStructure.GPIO_Mode = GPIO_Mode_IN_FLOATING;
 162:platform/sx12xxEiger/sx1276-Hal.c **** #endif
 163:platform/sx12xxEiger/sx1276-Hal.c **** 
 164:platform/sx12xxEiger/sx1276-Hal.c ****     // Configure DIO0
 165:platform/sx12xxEiger/sx1276-Hal.c ****     GPIO_InitStructure.GPIO_Pin =  DIO0_PIN;
 166:platform/sx12xxEiger/sx1276-Hal.c ****     GPIO_Init( DIO0_IOPORT, &GPIO_InitStructure );
 167:platform/sx12xxEiger/sx1276-Hal.c ****     
 168:platform/sx12xxEiger/sx1276-Hal.c ****     // Configure DIO1
 169:platform/sx12xxEiger/sx1276-Hal.c ****     GPIO_InitStructure.GPIO_Pin =  DIO1_PIN;
 170:platform/sx12xxEiger/sx1276-Hal.c ****     GPIO_Init( DIO1_IOPORT, &GPIO_InitStructure );
 171:platform/sx12xxEiger/sx1276-Hal.c ****     
 172:platform/sx12xxEiger/sx1276-Hal.c ****     // Configure DIO2
 173:platform/sx12xxEiger/sx1276-Hal.c ****     GPIO_InitStructure.GPIO_Pin =  DIO2_PIN;
 174:platform/sx12xxEiger/sx1276-Hal.c ****     GPIO_Init( DIO2_IOPORT, &GPIO_InitStructure );
 175:platform/sx12xxEiger/sx1276-Hal.c ****     
 176:platform/sx12xxEiger/sx1276-Hal.c ****     // REAMARK: DIO3/4/5 configured are connected to IO expander
 177:platform/sx12xxEiger/sx1276-Hal.c **** 
 178:platform/sx12xxEiger/sx1276-Hal.c ****     // Configure DIO3 as input
 179:platform/sx12xxEiger/sx1276-Hal.c ****     
 180:platform/sx12xxEiger/sx1276-Hal.c ****     // Configure DIO4 as input
 181:platform/sx12xxEiger/sx1276-Hal.c ****     
 182:platform/sx12xxEiger/sx1276-Hal.c ****     // Configure DIO5 as input
 183:platform/sx12xxEiger/sx1276-Hal.c **** 	*/
 184:platform/sx12xxEiger/sx1276-Hal.c **** }
 185:platform/sx12xxEiger/sx1276-Hal.c **** void SX1276SetReset( uint8_t state )
 186:platform/sx12xxEiger/sx1276-Hal.c **** {
  45              		.loc 1 186 0
ARM GAS  /tmp/ccGYjd8U.s 			page 5


  46              		.cfi_startproc
  47              		@ args = 0, pretend = 0, frame = 0
  48              		@ frame_needed = 0, uses_anonymous_args = 0
  49              		@ link register save eliminated.
  50              	.LVL0:
  51 0000 7047     		bx	lr
  52              		.cfi_endproc
  53              	.LFE65:
  55 0002 00BF     		.section	.text.SX1276WriteBuffer,"ax",%progbits
  56              		.align	2
  57              		.global	SX1276WriteBuffer
  58              		.thumb
  59              		.thumb_func
  61              	SX1276WriteBuffer:
  62              	.LFB68:
 187:platform/sx12xxEiger/sx1276-Hal.c **** 	/*
 188:platform/sx12xxEiger/sx1276-Hal.c ****     GPIO_InitTypeDef GPIO_InitStructure;
 189:platform/sx12xxEiger/sx1276-Hal.c **** 
 190:platform/sx12xxEiger/sx1276-Hal.c ****     if( state == RADIO_RESET_ON )
 191:platform/sx12xxEiger/sx1276-Hal.c ****     {
 192:platform/sx12xxEiger/sx1276-Hal.c ****         // Set RESET pin to 0
 193:platform/sx12xxEiger/sx1276-Hal.c ****         GPIO_WriteBit( RESET_IOPORT, RESET_PIN, Bit_RESET );
 194:platform/sx12xxEiger/sx1276-Hal.c **** 
 195:platform/sx12xxEiger/sx1276-Hal.c ****         // Configure RESET as output
 196:platform/sx12xxEiger/sx1276-Hal.c **** #if defined( STM32F4XX ) || defined( STM32F2XX ) || defined( STM32F429_439xx )
 197:platform/sx12xxEiger/sx1276-Hal.c ****         GPIO_InitStructure.GPIO_Mode = GPIO_Mode_OUT;
 198:platform/sx12xxEiger/sx1276-Hal.c ****         GPIO_InitStructure.GPIO_OType = GPIO_OType_PP;
 199:platform/sx12xxEiger/sx1276-Hal.c **** #else
 200:platform/sx12xxEiger/sx1276-Hal.c **** 
 201:platform/sx12xxEiger/sx1276-Hal.c ****         GPIO_InitStructure.GPIO_Mode  = GPIO_Mode_Out_PP;
 202:platform/sx12xxEiger/sx1276-Hal.c **** #endif        
 203:platform/sx12xxEiger/sx1276-Hal.c ****         GPIO_InitStructure.GPIO_Speed = GPIO_Speed_50MHz;
 204:platform/sx12xxEiger/sx1276-Hal.c ****         GPIO_InitStructure.GPIO_Pin = RESET_PIN;
 205:platform/sx12xxEiger/sx1276-Hal.c ****         GPIO_Init( RESET_IOPORT, &GPIO_InitStructure );
 206:platform/sx12xxEiger/sx1276-Hal.c ****     }
 207:platform/sx12xxEiger/sx1276-Hal.c ****     else
 208:platform/sx12xxEiger/sx1276-Hal.c ****     {
 209:platform/sx12xxEiger/sx1276-Hal.c **** #if FPGA == 0    
 210:platform/sx12xxEiger/sx1276-Hal.c ****         // Configure RESET as input
 211:platform/sx12xxEiger/sx1276-Hal.c **** #if defined( STM32F4XX ) || defined( STM32F2XX ) || defined( STM32F429_439xx )
 212:platform/sx12xxEiger/sx1276-Hal.c ****         GPIO_InitStructure.GPIO_Mode = GPIO_Mode_IN;
 213:platform/sx12xxEiger/sx1276-Hal.c **** #else
 214:platform/sx12xxEiger/sx1276-Hal.c ****         GPIO_InitStructure.GPIO_Mode = GPIO_Mode_IN_FLOATING;
 215:platform/sx12xxEiger/sx1276-Hal.c **** #endif        
 216:platform/sx12xxEiger/sx1276-Hal.c ****         GPIO_InitStructure.GPIO_Speed = GPIO_Speed_50MHz;
 217:platform/sx12xxEiger/sx1276-Hal.c ****         GPIO_InitStructure.GPIO_Pin =  RESET_PIN;
 218:platform/sx12xxEiger/sx1276-Hal.c ****         GPIO_Init( RESET_IOPORT, &GPIO_InitStructure );
 219:platform/sx12xxEiger/sx1276-Hal.c **** #else
 220:platform/sx12xxEiger/sx1276-Hal.c ****         GPIO_WriteBit( RESET_IOPORT, RESET_PIN, Bit_RESET );
 221:platform/sx12xxEiger/sx1276-Hal.c **** #endif
 222:platform/sx12xxEiger/sx1276-Hal.c ****     }
 223:platform/sx12xxEiger/sx1276-Hal.c **** */
 224:platform/sx12xxEiger/sx1276-Hal.c **** }
 225:platform/sx12xxEiger/sx1276-Hal.c **** void SX1276Write( uint8_t addr, uint8_t data )
 226:platform/sx12xxEiger/sx1276-Hal.c **** {
 227:platform/sx12xxEiger/sx1276-Hal.c ****     SX1276WriteBuffer( addr, &data, 1 );
 228:platform/sx12xxEiger/sx1276-Hal.c **** }
ARM GAS  /tmp/ccGYjd8U.s 			page 6


 229:platform/sx12xxEiger/sx1276-Hal.c **** 
 230:platform/sx12xxEiger/sx1276-Hal.c **** void SX1276Read( uint8_t addr, uint8_t *data )
 231:platform/sx12xxEiger/sx1276-Hal.c **** {
 232:platform/sx12xxEiger/sx1276-Hal.c ****     SX1276ReadBuffer( addr, data, 1 );
 233:platform/sx12xxEiger/sx1276-Hal.c **** }
 234:platform/sx12xxEiger/sx1276-Hal.c **** 
 235:platform/sx12xxEiger/sx1276-Hal.c **** void SX1276WriteBuffer( uint8_t addr, uint8_t *buffer, uint8_t size )
 236:platform/sx12xxEiger/sx1276-Hal.c **** {
  63              		.loc 1 236 0
  64              		.cfi_startproc
  65              		@ args = 0, pretend = 0, frame = 0
  66              		@ frame_needed = 0, uses_anonymous_args = 0
  67              	.LVL1:
  68              		.loc 1 236 0
  69 0000 70B5     		push	{r4, r5, r6, lr}
  70              	.LCFI0:
  71              		.cfi_def_cfa_offset 16
  72              		.cfi_offset 4, -16
  73              		.cfi_offset 5, -12
  74              		.cfi_offset 6, -8
  75              		.cfi_offset 14, -4
  76 0002 0446     		mov	r4, r0
  77 0004 0E46     		mov	r6, r1
  78 0006 1546     		mov	r5, r2
 237:platform/sx12xxEiger/sx1276-Hal.c ****     uint8_t i;
 238:platform/sx12xxEiger/sx1276-Hal.c **** 
 239:platform/sx12xxEiger/sx1276-Hal.c ****     //NSS = 0;
 240:platform/sx12xxEiger/sx1276-Hal.c **** 	HAL_GPIO_WritePin(NSS_IOPORT, NSS_PIN, GPIO_PIN_RESET);
  79              		.loc 1 240 0
  80 0008 0022     		movs	r2, #0
  81              	.LVL2:
  82 000a 4FF48071 		mov	r1, #256
  83              	.LVL3:
  84 000e 0B48     		ldr	r0, .L7
  85              	.LVL4:
  86 0010 FFF7FEFF 		bl	HAL_GPIO_WritePin
  87              	.LVL5:
 241:platform/sx12xxEiger/sx1276-Hal.c ****     SpiInOut( addr | 0x80 );
  88              		.loc 1 241 0
  89 0014 44F08000 		orr	r0, r4, #128
  90 0018 FFF7FEFF 		bl	SpiInOut
  91              	.LVL6:
 242:platform/sx12xxEiger/sx1276-Hal.c ****     for( i = 0; i < size; i++ )
  92              		.loc 1 242 0
  93 001c 0024     		movs	r4, #0
  94 001e 04E0     		b	.L4
  95              	.LVL7:
  96              	.L5:
 243:platform/sx12xxEiger/sx1276-Hal.c ****     {
 244:platform/sx12xxEiger/sx1276-Hal.c ****         SpiInOut( buffer[i] );
  97              		.loc 1 244 0 discriminator 3
  98 0020 305D     		ldrb	r0, [r6, r4]	@ zero_extendqisi2
  99 0022 FFF7FEFF 		bl	SpiInOut
 100              	.LVL8:
 242:platform/sx12xxEiger/sx1276-Hal.c ****     for( i = 0; i < size; i++ )
 101              		.loc 1 242 0 discriminator 3
 102 0026 0134     		adds	r4, r4, #1
ARM GAS  /tmp/ccGYjd8U.s 			page 7


 103              	.LVL9:
 104 0028 E4B2     		uxtb	r4, r4
 105              	.LVL10:
 106              	.L4:
 242:platform/sx12xxEiger/sx1276-Hal.c ****     for( i = 0; i < size; i++ )
 107              		.loc 1 242 0 is_stmt 0 discriminator 1
 108 002a AC42     		cmp	r4, r5
 109 002c F8D3     		bcc	.L5
 245:platform/sx12xxEiger/sx1276-Hal.c ****     }
 246:platform/sx12xxEiger/sx1276-Hal.c **** 
 247:platform/sx12xxEiger/sx1276-Hal.c ****     //NSS = 1;
 248:platform/sx12xxEiger/sx1276-Hal.c **** 	HAL_GPIO_WritePin(NSS_IOPORT, NSS_PIN, GPIO_PIN_SET);
 110              		.loc 1 248 0 is_stmt 1
 111 002e 0122     		movs	r2, #1
 112 0030 4FF48071 		mov	r1, #256
 113 0034 0148     		ldr	r0, .L7
 114 0036 FFF7FEFF 		bl	HAL_GPIO_WritePin
 115              	.LVL11:
 116 003a 70BD     		pop	{r4, r5, r6, pc}
 117              	.LVL12:
 118              	.L8:
 119              		.align	2
 120              	.L7:
 121 003c 00080140 		.word	1073809408
 122              		.cfi_endproc
 123              	.LFE68:
 125              		.section	.text.SX1276Write,"ax",%progbits
 126              		.align	2
 127              		.global	SX1276Write
 128              		.thumb
 129              		.thumb_func
 131              	SX1276Write:
 132              	.LFB66:
 226:platform/sx12xxEiger/sx1276-Hal.c ****     SX1276WriteBuffer( addr, &data, 1 );
 133              		.loc 1 226 0
 134              		.cfi_startproc
 135              		@ args = 0, pretend = 0, frame = 8
 136              		@ frame_needed = 0, uses_anonymous_args = 0
 137              	.LVL13:
 138 0000 00B5     		push	{lr}
 139              	.LCFI1:
 140              		.cfi_def_cfa_offset 4
 141              		.cfi_offset 14, -4
 142 0002 83B0     		sub	sp, sp, #12
 143              	.LCFI2:
 144              		.cfi_def_cfa_offset 16
 145 0004 02AB     		add	r3, sp, #8
 146 0006 03F8011D 		strb	r1, [r3, #-1]!
 227:platform/sx12xxEiger/sx1276-Hal.c **** }
 147              		.loc 1 227 0
 148 000a 0122     		movs	r2, #1
 149 000c 1946     		mov	r1, r3
 150              	.LVL14:
 151 000e FFF7FEFF 		bl	SX1276WriteBuffer
 152              	.LVL15:
 228:platform/sx12xxEiger/sx1276-Hal.c **** 
 153              		.loc 1 228 0
ARM GAS  /tmp/ccGYjd8U.s 			page 8


 154 0012 03B0     		add	sp, sp, #12
 155              	.LCFI3:
 156              		.cfi_def_cfa_offset 4
 157              		@ sp needed
 158 0014 5DF804FB 		ldr	pc, [sp], #4
 159              		.cfi_endproc
 160              	.LFE66:
 162              		.section	.text.SX1276ReadBuffer,"ax",%progbits
 163              		.align	2
 164              		.global	SX1276ReadBuffer
 165              		.thumb
 166              		.thumb_func
 168              	SX1276ReadBuffer:
 169              	.LFB69:
 249:platform/sx12xxEiger/sx1276-Hal.c **** }
 250:platform/sx12xxEiger/sx1276-Hal.c **** 
 251:platform/sx12xxEiger/sx1276-Hal.c **** void SX1276ReadBuffer( uint8_t addr, uint8_t *buffer, uint8_t size )
 252:platform/sx12xxEiger/sx1276-Hal.c **** {
 170              		.loc 1 252 0
 171              		.cfi_startproc
 172              		@ args = 0, pretend = 0, frame = 0
 173              		@ frame_needed = 0, uses_anonymous_args = 0
 174              	.LVL16:
 175 0000 70B5     		push	{r4, r5, r6, lr}
 176              	.LCFI4:
 177              		.cfi_def_cfa_offset 16
 178              		.cfi_offset 4, -16
 179              		.cfi_offset 5, -12
 180              		.cfi_offset 6, -8
 181              		.cfi_offset 14, -4
 182 0002 0446     		mov	r4, r0
 183 0004 0E46     		mov	r6, r1
 184 0006 1546     		mov	r5, r2
 253:platform/sx12xxEiger/sx1276-Hal.c ****     uint8_t i;
 254:platform/sx12xxEiger/sx1276-Hal.c **** 
 255:platform/sx12xxEiger/sx1276-Hal.c ****     //NSS = 0;
 256:platform/sx12xxEiger/sx1276-Hal.c **** 	HAL_GPIO_WritePin(NSS_IOPORT, NSS_PIN, GPIO_PIN_RESET);
 185              		.loc 1 256 0
 186 0008 0022     		movs	r2, #0
 187              	.LVL17:
 188 000a 4FF48071 		mov	r1, #256
 189              	.LVL18:
 190 000e 0C48     		ldr	r0, .L15
 191              	.LVL19:
 192 0010 FFF7FEFF 		bl	HAL_GPIO_WritePin
 193              	.LVL20:
 257:platform/sx12xxEiger/sx1276-Hal.c **** 
 258:platform/sx12xxEiger/sx1276-Hal.c ****     SpiInOut( addr & 0x7F );
 194              		.loc 1 258 0
 195 0014 04F07F00 		and	r0, r4, #127
 196 0018 FFF7FEFF 		bl	SpiInOut
 197              	.LVL21:
 259:platform/sx12xxEiger/sx1276-Hal.c **** 
 260:platform/sx12xxEiger/sx1276-Hal.c ****     for( i = 0; i < size; i++ )
 198              		.loc 1 260 0
 199 001c 0024     		movs	r4, #0
 200 001e 05E0     		b	.L12
ARM GAS  /tmp/ccGYjd8U.s 			page 9


 201              	.LVL22:
 202              	.L13:
 261:platform/sx12xxEiger/sx1276-Hal.c ****     {
 262:platform/sx12xxEiger/sx1276-Hal.c ****         buffer[i] = SpiInOut( 0 );
 203              		.loc 1 262 0 discriminator 3
 204 0020 0020     		movs	r0, #0
 205 0022 FFF7FEFF 		bl	SpiInOut
 206              	.LVL23:
 207 0026 3055     		strb	r0, [r6, r4]
 260:platform/sx12xxEiger/sx1276-Hal.c ****     {
 208              		.loc 1 260 0 discriminator 3
 209 0028 0134     		adds	r4, r4, #1
 210              	.LVL24:
 211 002a E4B2     		uxtb	r4, r4
 212              	.LVL25:
 213              	.L12:
 260:platform/sx12xxEiger/sx1276-Hal.c ****     {
 214              		.loc 1 260 0 is_stmt 0 discriminator 1
 215 002c AC42     		cmp	r4, r5
 216 002e F7D3     		bcc	.L13
 263:platform/sx12xxEiger/sx1276-Hal.c ****     }
 264:platform/sx12xxEiger/sx1276-Hal.c **** 
 265:platform/sx12xxEiger/sx1276-Hal.c ****     //NSS = 1;
 266:platform/sx12xxEiger/sx1276-Hal.c **** 	HAL_GPIO_WritePin(NSS_IOPORT, NSS_PIN, GPIO_PIN_SET);
 217              		.loc 1 266 0 is_stmt 1
 218 0030 0122     		movs	r2, #1
 219 0032 4FF48071 		mov	r1, #256
 220 0036 0248     		ldr	r0, .L15
 221 0038 FFF7FEFF 		bl	HAL_GPIO_WritePin
 222              	.LVL26:
 223 003c 70BD     		pop	{r4, r5, r6, pc}
 224              	.LVL27:
 225              	.L16:
 226 003e 00BF     		.align	2
 227              	.L15:
 228 0040 00080140 		.word	1073809408
 229              		.cfi_endproc
 230              	.LFE69:
 232              		.section	.text.SX1276Read,"ax",%progbits
 233              		.align	2
 234              		.global	SX1276Read
 235              		.thumb
 236              		.thumb_func
 238              	SX1276Read:
 239              	.LFB67:
 231:platform/sx12xxEiger/sx1276-Hal.c ****     SX1276ReadBuffer( addr, data, 1 );
 240              		.loc 1 231 0
 241              		.cfi_startproc
 242              		@ args = 0, pretend = 0, frame = 0
 243              		@ frame_needed = 0, uses_anonymous_args = 0
 244              	.LVL28:
 245 0000 08B5     		push	{r3, lr}
 246              	.LCFI5:
 247              		.cfi_def_cfa_offset 8
 248              		.cfi_offset 3, -8
 249              		.cfi_offset 14, -4
 232:platform/sx12xxEiger/sx1276-Hal.c **** }
ARM GAS  /tmp/ccGYjd8U.s 			page 10


 250              		.loc 1 232 0
 251 0002 0122     		movs	r2, #1
 252 0004 FFF7FEFF 		bl	SX1276ReadBuffer
 253              	.LVL29:
 254 0008 08BD     		pop	{r3, pc}
 255              		.cfi_endproc
 256              	.LFE67:
 258 000a 00BF     		.section	.text.SX1276WriteFifo,"ax",%progbits
 259              		.align	2
 260              		.global	SX1276WriteFifo
 261              		.thumb
 262              		.thumb_func
 264              	SX1276WriteFifo:
 265              	.LFB70:
 267:platform/sx12xxEiger/sx1276-Hal.c **** }
 268:platform/sx12xxEiger/sx1276-Hal.c **** 
 269:platform/sx12xxEiger/sx1276-Hal.c **** void SX1276WriteFifo( uint8_t *buffer, uint8_t size )
 270:platform/sx12xxEiger/sx1276-Hal.c **** {
 266              		.loc 1 270 0
 267              		.cfi_startproc
 268              		@ args = 0, pretend = 0, frame = 0
 269              		@ frame_needed = 0, uses_anonymous_args = 0
 270              	.LVL30:
 271 0000 08B5     		push	{r3, lr}
 272              	.LCFI6:
 273              		.cfi_def_cfa_offset 8
 274              		.cfi_offset 3, -8
 275              		.cfi_offset 14, -4
 271:platform/sx12xxEiger/sx1276-Hal.c ****     SX1276WriteBuffer( 0, buffer, size );
 276              		.loc 1 271 0
 277 0002 0A46     		mov	r2, r1
 278 0004 0146     		mov	r1, r0
 279              	.LVL31:
 280 0006 0020     		movs	r0, #0
 281              	.LVL32:
 282 0008 FFF7FEFF 		bl	SX1276WriteBuffer
 283              	.LVL33:
 284 000c 08BD     		pop	{r3, pc}
 285              		.cfi_endproc
 286              	.LFE70:
 288 000e 00BF     		.section	.text.SX1276ReadFifo,"ax",%progbits
 289              		.align	2
 290              		.global	SX1276ReadFifo
 291              		.thumb
 292              		.thumb_func
 294              	SX1276ReadFifo:
 295              	.LFB71:
 272:platform/sx12xxEiger/sx1276-Hal.c **** }
 273:platform/sx12xxEiger/sx1276-Hal.c **** 
 274:platform/sx12xxEiger/sx1276-Hal.c **** void SX1276ReadFifo( uint8_t *buffer, uint8_t size )
 275:platform/sx12xxEiger/sx1276-Hal.c **** {
 296              		.loc 1 275 0
 297              		.cfi_startproc
 298              		@ args = 0, pretend = 0, frame = 0
 299              		@ frame_needed = 0, uses_anonymous_args = 0
 300              	.LVL34:
 301 0000 08B5     		push	{r3, lr}
ARM GAS  /tmp/ccGYjd8U.s 			page 11


 302              	.LCFI7:
 303              		.cfi_def_cfa_offset 8
 304              		.cfi_offset 3, -8
 305              		.cfi_offset 14, -4
 276:platform/sx12xxEiger/sx1276-Hal.c ****     SX1276ReadBuffer( 0, buffer, size );
 306              		.loc 1 276 0
 307 0002 0A46     		mov	r2, r1
 308 0004 0146     		mov	r1, r0
 309              	.LVL35:
 310 0006 0020     		movs	r0, #0
 311              	.LVL36:
 312 0008 FFF7FEFF 		bl	SX1276ReadBuffer
 313              	.LVL37:
 314 000c 08BD     		pop	{r3, pc}
 315              		.cfi_endproc
 316              	.LFE71:
 318 000e 00BF     		.section	.text.SX1276ReadDio0,"ax",%progbits
 319              		.align	2
 320              		.global	SX1276ReadDio0
 321              		.thumb
 322              		.thumb_func
 324              	SX1276ReadDio0:
 325              	.LFB72:
 277:platform/sx12xxEiger/sx1276-Hal.c **** }
 278:platform/sx12xxEiger/sx1276-Hal.c **** 
 279:platform/sx12xxEiger/sx1276-Hal.c **** uint8_t SX1276ReadDio0( void )
 280:platform/sx12xxEiger/sx1276-Hal.c **** {
 326              		.loc 1 280 0
 327              		.cfi_startproc
 328              		@ args = 0, pretend = 0, frame = 0
 329              		@ frame_needed = 0, uses_anonymous_args = 0
 330 0000 08B5     		push	{r3, lr}
 331              	.LCFI8:
 332              		.cfi_def_cfa_offset 8
 333              		.cfi_offset 3, -8
 334              		.cfi_offset 14, -4
 281:platform/sx12xxEiger/sx1276-Hal.c ****     //return GPIO_ReadInputDataBit( DIO0_IOPORT, DIO0_PIN );
 282:platform/sx12xxEiger/sx1276-Hal.c **** 	return HAL_GPIO_ReadPin(DIO0_IOPORT, DIO0_PIN);
 335              		.loc 1 282 0
 336 0002 4FF48051 		mov	r1, #4096
 337 0006 0248     		ldr	r0, .L25
 338 0008 FFF7FEFF 		bl	HAL_GPIO_ReadPin
 339              	.LVL38:
 283:platform/sx12xxEiger/sx1276-Hal.c **** }
 340              		.loc 1 283 0
 341 000c 08BD     		pop	{r3, pc}
 342              	.L26:
 343 000e 00BF     		.align	2
 344              	.L25:
 345 0010 000C0140 		.word	1073810432
 346              		.cfi_endproc
 347              	.LFE72:
 349              		.section	.text.SX1276ReadDio1,"ax",%progbits
 350              		.align	2
 351              		.global	SX1276ReadDio1
 352              		.thumb
 353              		.thumb_func
ARM GAS  /tmp/ccGYjd8U.s 			page 12


 355              	SX1276ReadDio1:
 356              	.LFB73:
 284:platform/sx12xxEiger/sx1276-Hal.c **** 
 285:platform/sx12xxEiger/sx1276-Hal.c **** uint8_t SX1276ReadDio1( void )
 286:platform/sx12xxEiger/sx1276-Hal.c **** {
 357              		.loc 1 286 0
 358              		.cfi_startproc
 359              		@ args = 0, pretend = 0, frame = 0
 360              		@ frame_needed = 0, uses_anonymous_args = 0
 361 0000 08B5     		push	{r3, lr}
 362              	.LCFI9:
 363              		.cfi_def_cfa_offset 8
 364              		.cfi_offset 3, -8
 365              		.cfi_offset 14, -4
 287:platform/sx12xxEiger/sx1276-Hal.c ****     //return GPIO_ReadInputDataBit( DIO1_IOPORT, DIO1_PIN );
 288:platform/sx12xxEiger/sx1276-Hal.c **** 	return HAL_GPIO_ReadPin(DIO1_IOPORT, DIO1_PIN);
 366              		.loc 1 288 0
 367 0002 4FF40051 		mov	r1, #8192
 368 0006 0248     		ldr	r0, .L29
 369 0008 FFF7FEFF 		bl	HAL_GPIO_ReadPin
 370              	.LVL39:
 289:platform/sx12xxEiger/sx1276-Hal.c **** }
 371              		.loc 1 289 0
 372 000c 08BD     		pop	{r3, pc}
 373              	.L30:
 374 000e 00BF     		.align	2
 375              	.L29:
 376 0010 000C0140 		.word	1073810432
 377              		.cfi_endproc
 378              	.LFE73:
 380              		.section	.text.SX1276ReadDio2,"ax",%progbits
 381              		.align	2
 382              		.global	SX1276ReadDio2
 383              		.thumb
 384              		.thumb_func
 386              	SX1276ReadDio2:
 387              	.LFB74:
 290:platform/sx12xxEiger/sx1276-Hal.c **** 
 291:platform/sx12xxEiger/sx1276-Hal.c **** uint8_t SX1276ReadDio2( void )
 292:platform/sx12xxEiger/sx1276-Hal.c **** {
 388              		.loc 1 292 0
 389              		.cfi_startproc
 390              		@ args = 0, pretend = 0, frame = 0
 391              		@ frame_needed = 0, uses_anonymous_args = 0
 392 0000 08B5     		push	{r3, lr}
 393              	.LCFI10:
 394              		.cfi_def_cfa_offset 8
 395              		.cfi_offset 3, -8
 396              		.cfi_offset 14, -4
 293:platform/sx12xxEiger/sx1276-Hal.c ****     //return GPIO_ReadInputDataBit( DIO2_IOPORT, DIO2_PIN );
 294:platform/sx12xxEiger/sx1276-Hal.c **** 	return HAL_GPIO_ReadPin(DIO2_IOPORT, DIO2_PIN);
 397              		.loc 1 294 0
 398 0002 4FF48041 		mov	r1, #16384
 399 0006 0248     		ldr	r0, .L33
 400 0008 FFF7FEFF 		bl	HAL_GPIO_ReadPin
 401              	.LVL40:
 295:platform/sx12xxEiger/sx1276-Hal.c **** }
ARM GAS  /tmp/ccGYjd8U.s 			page 13


 402              		.loc 1 295 0
 403 000c 08BD     		pop	{r3, pc}
 404              	.L34:
 405 000e 00BF     		.align	2
 406              	.L33:
 407 0010 000C0140 		.word	1073810432
 408              		.cfi_endproc
 409              	.LFE74:
 411              		.section	.text.SX1276ReadDio3,"ax",%progbits
 412              		.align	2
 413              		.global	SX1276ReadDio3
 414              		.thumb
 415              		.thumb_func
 417              	SX1276ReadDio3:
 418              	.LFB75:
 296:platform/sx12xxEiger/sx1276-Hal.c **** 
 297:platform/sx12xxEiger/sx1276-Hal.c **** uint8_t SX1276ReadDio3( void )
 298:platform/sx12xxEiger/sx1276-Hal.c **** {
 419              		.loc 1 298 0
 420              		.cfi_startproc
 421              		@ args = 0, pretend = 0, frame = 0
 422              		@ frame_needed = 0, uses_anonymous_args = 0
 423              		@ link register save eliminated.
 299:platform/sx12xxEiger/sx1276-Hal.c ****     //return IoePinGet( RF_DIO3_PIN );
 300:platform/sx12xxEiger/sx1276-Hal.c **** 	return 1;
 301:platform/sx12xxEiger/sx1276-Hal.c **** }
 424              		.loc 1 301 0
 425 0000 0120     		movs	r0, #1
 426 0002 7047     		bx	lr
 427              		.cfi_endproc
 428              	.LFE75:
 430              		.section	.text.SX1276ReadDio4,"ax",%progbits
 431              		.align	2
 432              		.global	SX1276ReadDio4
 433              		.thumb
 434              		.thumb_func
 436              	SX1276ReadDio4:
 437              	.LFB76:
 302:platform/sx12xxEiger/sx1276-Hal.c **** 
 303:platform/sx12xxEiger/sx1276-Hal.c **** uint8_t SX1276ReadDio4( void )
 304:platform/sx12xxEiger/sx1276-Hal.c **** {
 438              		.loc 1 304 0
 439              		.cfi_startproc
 440              		@ args = 0, pretend = 0, frame = 0
 441              		@ frame_needed = 0, uses_anonymous_args = 0
 442              		@ link register save eliminated.
 305:platform/sx12xxEiger/sx1276-Hal.c ****     //return IoePinGet( RF_DIO4_PIN );
 306:platform/sx12xxEiger/sx1276-Hal.c **** 	return 1;
 307:platform/sx12xxEiger/sx1276-Hal.c **** }
 443              		.loc 1 307 0
 444 0000 0120     		movs	r0, #1
 445 0002 7047     		bx	lr
 446              		.cfi_endproc
 447              	.LFE76:
 449              		.section	.text.SX1276ReadDio5,"ax",%progbits
 450              		.align	2
 451              		.global	SX1276ReadDio5
ARM GAS  /tmp/ccGYjd8U.s 			page 14


 452              		.thumb
 453              		.thumb_func
 455              	SX1276ReadDio5:
 456              	.LFB77:
 308:platform/sx12xxEiger/sx1276-Hal.c **** 
 309:platform/sx12xxEiger/sx1276-Hal.c **** uint8_t SX1276ReadDio5( void )
 310:platform/sx12xxEiger/sx1276-Hal.c **** {
 457              		.loc 1 310 0
 458              		.cfi_startproc
 459              		@ args = 0, pretend = 0, frame = 0
 460              		@ frame_needed = 0, uses_anonymous_args = 0
 461              		@ link register save eliminated.
 311:platform/sx12xxEiger/sx1276-Hal.c ****     //return IoePinGet( RF_DIO5_PIN );
 312:platform/sx12xxEiger/sx1276-Hal.c **** 	return 1;
 313:platform/sx12xxEiger/sx1276-Hal.c **** }
 462              		.loc 1 313 0
 463 0000 0120     		movs	r0, #1
 464 0002 7047     		bx	lr
 465              		.cfi_endproc
 466              	.LFE77:
 468              		.section	.text.SX1276WriteRxTx,"ax",%progbits
 469              		.align	2
 470              		.global	SX1276WriteRxTx
 471              		.thumb
 472              		.thumb_func
 474              	SX1276WriteRxTx:
 475              	.LFB78:
 314:platform/sx12xxEiger/sx1276-Hal.c **** 
 315:platform/sx12xxEiger/sx1276-Hal.c **** void SX1276WriteRxTx( uint8_t txEnable )
 316:platform/sx12xxEiger/sx1276-Hal.c **** {
 476              		.loc 1 316 0
 477              		.cfi_startproc
 478              		@ args = 0, pretend = 0, frame = 0
 479              		@ frame_needed = 0, uses_anonymous_args = 0
 480              		@ link register save eliminated.
 481              	.LVL41:
 482 0000 7047     		bx	lr
 483              		.cfi_endproc
 484              	.LFE78:
 486 0002 00BF     		.text
 487              	.Letext0:
 488              		.file 2 "/opt/gcc-arm-none-eabi-5_4-2016q3/arm-none-eabi/include/machine/_default_types.h"
 489              		.file 3 "/opt/gcc-arm-none-eabi-5_4-2016q3/arm-none-eabi/include/sys/_stdint.h"
 490              		.file 4 "Drivers/CMSIS/Device/ST/STM32F1xx/Include/stm32f103xb.h"
 491              		.file 5 "Drivers/STM32F1xx_HAL_Driver/Inc/stm32f1xx_hal_gpio.h"
 492              		.file 6 "Inc/spi.h"
 493              		.file 7 "Drivers/CMSIS/Include/core_cm3.h"
ARM GAS  /tmp/ccGYjd8U.s 			page 15

